

Microchip MPLAB XC8 Assembler V2.40 build 20220703182018 
                                                                                               Tue Oct 18 07:56:56 2022

Microchip MPLAB XC8 C Compiler v2.40 (Free license) build 20220703182018 Og1 
     1                           	processor	16F887
     2                           	pagewidth 120
     3                           	opt	flic
     4                           	psect	cinit,global,class=CODE,merge=1,delta=2
     5                           	psect	bssCOMMON,global,class=COMMON,space=1,delta=1,noexec
     6                           	psect	bssBANK0,global,class=BANK0,space=1,delta=1,noexec
     7                           	psect	cstackCOMMON,global,class=COMMON,space=1,delta=1,noexec
     8                           	psect	cstackBANK0,global,class=BANK0,space=1,delta=1,noexec
     9                           	psect	maintext,global,class=CODE,split=1,delta=2
    10                           	psect	text1,local,class=CODE,merge=1,delta=2
    11                           	psect	text2,local,class=CODE,merge=1,delta=2
    12                           	psect	text3,local,class=CODE,merge=1,delta=2
    13                           	psect	text4,local,class=CODE,merge=1,delta=2
    14                           	psect	text5,local,class=CODE,merge=1,delta=2,group=1
    15                           	psect	text6,local,class=CODE,merge=1,delta=2,group=1
    16                           	psect	text7,local,class=CODE,merge=1,delta=2,group=1
    17                           	psect	text8,local,class=CODE,merge=1,delta=2,group=1
    18                           	psect	text9,local,class=CODE,merge=1,delta=2,group=1
    19                           	psect	text10,local,class=CODE,merge=1,delta=2
    20                           	psect	intentry,global,class=CODE,delta=2
    21                           	psect	idloc,global,abs,ovrld,class=IDLOC,space=5,delta=2,noexec
    22                           	psect	config,global,abs,ovrld,class=CONFIG,space=4,delta=2,noexec
    23                           	dabs	1,0x7E,2
    24     0000                     
    25                           ; Version 2.40
    26                           ; Generated 17/11/2021 GMT
    27                           ; 
    28                           ; Copyright © 2021, Microchip Technology Inc. and its subsidiaries ("Microchip")
    29                           ; All rights reserved.
    30                           ; 
    31                           ; This software is developed by Microchip Technology Inc. and its subsidiaries ("Microch
      +                          ip").
    32                           ; 
    33                           ; Redistribution and use in source and binary forms, with or without modification, are
    34                           ; permitted provided that the following conditions are met:
    35                           ; 
    36                           ;     1. Redistributions of source code must retain the above copyright notice, this lis
      +                          t of
    37                           ;        conditions and the following disclaimer.
    38                           ; 
    39                           ;     2. Redistributions in binary form must reproduce the above copyright notice, this 
      +                          list
    40                           ;        of conditions and the following disclaimer in the documentation and/or other
    41                           ;        materials provided with the distribution. Publication is not required when
    42                           ;        this file is used in an embedded application.
    43                           ; 
    44                           ;     3. Microchip's name may not be used to endorse or promote products derived from th
      +                          is
    45                           ;        software without specific prior written permission.
    46                           ; 
    47                           ; THIS SOFTWARE IS PROVIDED BY MICROCHIP "AS IS" AND ANY EXPRESS OR IMPLIED WARRANTIES,
    48                           ; INCLUDING, BUT NOT LIMITED TO, THE IMPLIED WARRANTIES OF MERCHANTABILITY AND FITNESS F
      +                          OR
    49                           ; PURPOSE ARE DISCLAIMED.  IN NO EVENT SHALL MICROCHIP BE LIABLE FOR ANY DIRECT, INDIREC
      +                          T,
    50                           ; INCIDENTAL, SPECIAL, EXEMPLARY, OR CONSEQUENTIAL DAMAGES (INCLUDING BUT NOT LIMITED TO
    51                           ; PROCUREMENT OF SUBSTITUTE GOODS OR SERVICES; LOSS OF USE, DATA OR PROFITS; OR BUSINESS
    52                           ; INTERRUPTION) HOWSOEVER CAUSED AND ON ANY THEORY OF LIABILITY, WHETHER IN CONTRACT, ST
      +                          RICT
    53                           ; LIABILITY, OR TORT (INCLUDING NEGLIGENCE OR OTHERWISE) ARISING IN ANY WAY OUT OF THE U
      +                          SE OF
    54                           ; THIS SOFTWARE, EVEN IF ADVISED OF THE POSSIBILITY OF SUCH DAMAGE.
    55                           ; 
    56                           ; 
    57                           ; Code-generator required, PIC16F887 Definitions
    58                           ; 
    59                           ; SFR Addresses
    60     0000                     	;# 
    61     0001                     	;# 
    62     0002                     	;# 
    63     0003                     	;# 
    64     0004                     	;# 
    65     0005                     	;# 
    66     0006                     	;# 
    67     0007                     	;# 
    68     0008                     	;# 
    69     0009                     	;# 
    70     000A                     	;# 
    71     000B                     	;# 
    72     000C                     	;# 
    73     000D                     	;# 
    74     000E                     	;# 
    75     000E                     	;# 
    76     000F                     	;# 
    77     0010                     	;# 
    78     0011                     	;# 
    79     0012                     	;# 
    80     0013                     	;# 
    81     0014                     	;# 
    82     0015                     	;# 
    83     0015                     	;# 
    84     0016                     	;# 
    85     0017                     	;# 
    86     0018                     	;# 
    87     0019                     	;# 
    88     001A                     	;# 
    89     001B                     	;# 
    90     001B                     	;# 
    91     001C                     	;# 
    92     001D                     	;# 
    93     001E                     	;# 
    94     001F                     	;# 
    95     0081                     	;# 
    96     0085                     	;# 
    97     0086                     	;# 
    98     0087                     	;# 
    99     0088                     	;# 
   100     0089                     	;# 
   101     008C                     	;# 
   102     008D                     	;# 
   103     008E                     	;# 
   104     008F                     	;# 
   105     0090                     	;# 
   106     0091                     	;# 
   107     0092                     	;# 
   108     0093                     	;# 
   109     0093                     	;# 
   110     0093                     	;# 
   111     0094                     	;# 
   112     0095                     	;# 
   113     0096                     	;# 
   114     0097                     	;# 
   115     0098                     	;# 
   116     0099                     	;# 
   117     009A                     	;# 
   118     009B                     	;# 
   119     009C                     	;# 
   120     009D                     	;# 
   121     009E                     	;# 
   122     009F                     	;# 
   123     0105                     	;# 
   124     0107                     	;# 
   125     0108                     	;# 
   126     0109                     	;# 
   127     010C                     	;# 
   128     010C                     	;# 
   129     010D                     	;# 
   130     010E                     	;# 
   131     010F                     	;# 
   132     0185                     	;# 
   133     0187                     	;# 
   134     0188                     	;# 
   135     0189                     	;# 
   136     018C                     	;# 
   137     018D                     	;# 
   138     0000                     	;# 
   139     0001                     	;# 
   140     0002                     	;# 
   141     0003                     	;# 
   142     0004                     	;# 
   143     0005                     	;# 
   144     0006                     	;# 
   145     0007                     	;# 
   146     0008                     	;# 
   147     0009                     	;# 
   148     000A                     	;# 
   149     000B                     	;# 
   150     000C                     	;# 
   151     000D                     	;# 
   152     000E                     	;# 
   153     000E                     	;# 
   154     000F                     	;# 
   155     0010                     	;# 
   156     0011                     	;# 
   157     0012                     	;# 
   158     0013                     	;# 
   159     0014                     	;# 
   160     0015                     	;# 
   161     0015                     	;# 
   162     0016                     	;# 
   163     0017                     	;# 
   164     0018                     	;# 
   165     0019                     	;# 
   166     001A                     	;# 
   167     001B                     	;# 
   168     001B                     	;# 
   169     001C                     	;# 
   170     001D                     	;# 
   171     001E                     	;# 
   172     001F                     	;# 
   173     0081                     	;# 
   174     0085                     	;# 
   175     0086                     	;# 
   176     0087                     	;# 
   177     0088                     	;# 
   178     0089                     	;# 
   179     008C                     	;# 
   180     008D                     	;# 
   181     008E                     	;# 
   182     008F                     	;# 
   183     0090                     	;# 
   184     0091                     	;# 
   185     0092                     	;# 
   186     0093                     	;# 
   187     0093                     	;# 
   188     0093                     	;# 
   189     0094                     	;# 
   190     0095                     	;# 
   191     0096                     	;# 
   192     0097                     	;# 
   193     0098                     	;# 
   194     0099                     	;# 
   195     009A                     	;# 
   196     009B                     	;# 
   197     009C                     	;# 
   198     009D                     	;# 
   199     009E                     	;# 
   200     009F                     	;# 
   201     0105                     	;# 
   202     0107                     	;# 
   203     0108                     	;# 
   204     0109                     	;# 
   205     010C                     	;# 
   206     010C                     	;# 
   207     010D                     	;# 
   208     010E                     	;# 
   209     010F                     	;# 
   210     0185                     	;# 
   211     0187                     	;# 
   212     0188                     	;# 
   213     0189                     	;# 
   214     018C                     	;# 
   215     018D                     	;# 
   216     0012                     _T2CONbits	set	18
   217     001D                     _CCP2CONbits	set	29
   218     0017                     _CCP1CONbits	set	23
   219     0009                     _PORTE	set	9
   220     0008                     _PORTD	set	8
   221     0007                     _PORTC	set	7
   222     0006                     _PORTB	set	6
   223     001B                     _CCPR2L	set	27
   224     0015                     _CCPR1L	set	21
   225     001E                     _ADRESH	set	30
   226     001F                     _ADCON0bits	set	31
   227     0001                     _TMR0	set	1
   228     0005                     _PORTAbits	set	5
   229     000B                     _INTCONbits	set	11
   230     0006                     _PORTBbits	set	6
   231     000C                     _PIR1bits	set	12
   232     009F                     _ADCON1bits	set	159
   233     0092                     _PR2	set	146
   234     0087                     _TRISCbits	set	135
   235     0081                     _OPTION_REGbits	set	129
   236     008C                     _PIE1bits	set	140
   237     008F                     _OSCCONbits	set	143
   238     0089                     _TRISE	set	137
   239     0088                     _TRISD	set	136
   240     0087                     _TRISC	set	135
   241     0086                     _TRISB	set	134
   242     0085                     _TRISAbits	set	133
   243     0188                     _ANSELbits	set	392
   244     0189                     _ANSELH	set	393
   245                           
   246                           	psect	cinit
   247     000F                     start_initialization:	
   248                           ; #config settings
   249                           
   250     000F                     __initialization:
   251                           
   252                           ; Clear objects allocated to COMMON
   253     000F  01F9               	clrf	__pbssCOMMON& (0+127)
   254                           
   255                           ; Clear objects allocated to BANK0
   256     0010  1283               	bcf	3,5	;RP0=0, select bank0
   257     0011  1303               	bcf	3,6	;RP1=0, select bank0
   258     0012  01E4               	clrf	__pbssBANK0& (0+127)
   259     0013  01E5               	clrf	(__pbssBANK0+1)& (0+127)
   260     0014  01E6               	clrf	(__pbssBANK0+2)& (0+127)
   261     0015  01E7               	clrf	(__pbssBANK0+3)& (0+127)
   262     0016  01E8               	clrf	(__pbssBANK0+4)& (0+127)
   263     0017  01E9               	clrf	(__pbssBANK0+5)& (0+127)
   264     0018  01EA               	clrf	(__pbssBANK0+6)& (0+127)
   265     0019  01EB               	clrf	(__pbssBANK0+7)& (0+127)
   266     001A  01EC               	clrf	(__pbssBANK0+8)& (0+127)
   267     001B                     end_of_initialization:	
   268                           ;End of C runtime variable initialization code
   269                           
   270     001B                     __end_of__initialization:
   271     001B  0183               	clrf	3
   272     001C  120A  118A  2E76   	ljmp	_main	;jump to C main() function
   273                           
   274                           	psect	bssCOMMON
   275     0079                     __pbssCOMMON:
   276     0079                     _i:
   277     0079                     	ds	1
   278                           
   279                           	psect	bssBANK0
   280     0064                     __pbssBANK0:
   281     0064                     _ADC_Voltaje3:
   282     0064                     	ds	2
   283     0066                     _ADC_Voltaje2:
   284     0066                     	ds	2
   285     0068                     _ADC_Voltaje1:
   286     0068                     	ds	2
   287     006A                     _equivalent:
   288     006A                     	ds	2
   289     006C                     _contador:
   290     006C                     	ds	1
   291                           
   292                           	psect	cstackCOMMON
   293     0070                     __pcstackCOMMON:
   294     0070                     ?_setup:
   295     0070                     ?_setupADC:	
   296                           ; 1 bytes @ 0x0
   297                           
   298     0070                     ?_setupPWM:	
   299                           ; 1 bytes @ 0x0
   300                           
   301     0070                     ?_isr:	
   302                           ; 1 bytes @ 0x0
   303                           
   304     0070                     ??_isr:	
   305                           ; 1 bytes @ 0x0
   306                           
   307     0070                     ?_main:	
   308                           ; 1 bytes @ 0x0
   309                           
   310                           
   311                           ; 1 bytes @ 0x0
   312     0070                     	ds	3
   313     0073                     ??_setup:
   314     0073                     ??_setupADC:	
   315                           ; 1 bytes @ 0x3
   316                           
   317     0073                     ??_setupPWM:	
   318                           ; 1 bytes @ 0x3
   319                           
   320     0073                     ?__Umul8_16:	
   321                           ; 1 bytes @ 0x3
   322                           
   323     0073                     ?___xxtofl:	
   324                           ; 2 bytes @ 0x3
   325                           
   326     0073                     __Umul8_16@multiplicand:	
   327                           ; 4 bytes @ 0x3
   328                           
   329     0073                     ___xxtofl@val:	
   330                           ; 1 bytes @ 0x3
   331                           
   332                           
   333                           ; 4 bytes @ 0x3
   334     0073                     	ds	2
   335     0075                     ??__Umul8_16:
   336                           
   337                           ; 1 bytes @ 0x5
   338     0075                     	ds	2
   339     0077                     ___fltol@sign1:
   340                           
   341                           ; 1 bytes @ 0x7
   342     0077                     	ds	1
   343     0078                     ___fltol@exp1:
   344                           
   345                           ; 1 bytes @ 0x8
   346     0078                     	ds	1
   347     0079                     ??_conversion:
   348                           
   349                           	psect	cstackBANK0
   350     0020                     __pcstackBANK0:	
   351                           ; 1 bytes @ 0x9
   352                           
   353     0020                     ??___xxtofl:
   354     0020                     __Umul8_16@product:	
   355                           ; 1 bytes @ 0x0
   356                           
   357                           
   358                           ; 2 bytes @ 0x0
   359     0020                     	ds	2
   360     0022                     __Umul8_16@word_mpld:
   361                           
   362                           ; 2 bytes @ 0x2
   363     0022                     	ds	2
   364     0024                     __Umul8_16@multiplier:
   365     0024                     ___xxtofl@sign:	
   366                           ; 1 bytes @ 0x4
   367                           
   368                           
   369                           ; 1 bytes @ 0x4
   370     0024                     	ds	1
   371     0025                     ___xxtofl@exp:
   372                           
   373                           ; 1 bytes @ 0x5
   374     0025                     	ds	1
   375     0026                     ___xxtofl@arg:
   376                           
   377                           ; 4 bytes @ 0x6
   378     0026                     	ds	4
   379     002A                     ?___flmul:
   380     002A                     ___flmul@b:	
   381                           ; 4 bytes @ 0xA
   382                           
   383                           
   384                           ; 4 bytes @ 0xA
   385     002A                     	ds	4
   386     002E                     ___flmul@a:
   387                           
   388                           ; 4 bytes @ 0xE
   389     002E                     	ds	4
   390     0032                     ??___flmul:
   391                           
   392                           ; 1 bytes @ 0x12
   393     0032                     	ds	5
   394     0037                     ___flmul@sign:
   395                           
   396                           ; 1 bytes @ 0x17
   397     0037                     	ds	1
   398     0038                     ___flmul@grs:
   399                           
   400                           ; 4 bytes @ 0x18
   401     0038                     	ds	4
   402     003C                     ___flmul@aexp:
   403                           
   404                           ; 1 bytes @ 0x1C
   405     003C                     	ds	1
   406     003D                     ___flmul@bexp:
   407                           
   408                           ; 1 bytes @ 0x1D
   409     003D                     	ds	1
   410     003E                     ___flmul@prod:
   411                           
   412                           ; 4 bytes @ 0x1E
   413     003E                     	ds	4
   414     0042                     ___flmul@temp:
   415                           
   416                           ; 2 bytes @ 0x22
   417     0042                     	ds	2
   418     0044                     ?___fladd:
   419     0044                     ___fladd@b:	
   420                           ; 4 bytes @ 0x24
   421                           
   422                           
   423                           ; 4 bytes @ 0x24
   424     0044                     	ds	4
   425     0048                     ___fladd@a:
   426                           
   427                           ; 4 bytes @ 0x28
   428     0048                     	ds	4
   429     004C                     ??___fladd:
   430                           
   431                           ; 1 bytes @ 0x2C
   432     004C                     	ds	8
   433     0054                     ___fladd@signs:
   434                           
   435                           ; 1 bytes @ 0x34
   436     0054                     	ds	1
   437     0055                     ___fladd@aexp:
   438                           
   439                           ; 1 bytes @ 0x35
   440     0055                     	ds	1
   441     0056                     ___fladd@bexp:
   442                           
   443                           ; 1 bytes @ 0x36
   444     0056                     	ds	1
   445     0057                     ___fladd@grs:
   446                           
   447                           ; 1 bytes @ 0x37
   448     0057                     	ds	1
   449     0058                     ?___fltol:
   450     0058                     ___fltol@f1:	
   451                           ; 4 bytes @ 0x38
   452                           
   453                           
   454                           ; 4 bytes @ 0x38
   455     0058                     	ds	4
   456     005C                     ??___fltol:
   457                           
   458                           ; 1 bytes @ 0x3C
   459     005C                     	ds	4
   460     0060                     ?_conversion:
   461     0060                     conversion@voltaje:	
   462                           ; 1 bytes @ 0x40
   463                           
   464                           
   465                           ; 2 bytes @ 0x40
   466     0060                     	ds	2
   467     0062                     ??_main:
   468                           
   469                           ; 1 bytes @ 0x42
   470     0062                     	ds	2
   471                           
   472                           	psect	maintext
   473     0676                     __pmaintext:	
   474 ;;
   475 ;;Main: autosize = 0, tempsize = 2, incstack = 0, save=0
   476 ;;
   477 ;; *************** function _main *****************
   478 ;; Defined at:
   479 ;;		line 77 in file "main.c"
   480 ;; Parameters:    Size  Location     Type
   481 ;;		None
   482 ;; Auto vars:     Size  Location     Type
   483 ;;		None
   484 ;; Return value:  Size  Location     Type
   485 ;;                  1    wreg      void 
   486 ;; Registers used:
   487 ;;		wreg, status,2, status,0, btemp+1, pclath, cstack
   488 ;; Tracked objects:
   489 ;;		On entry : B00/0
   490 ;;		On exit  : 0/0
   491 ;;		Unchanged: 0/0
   492 ;; Data sizes:     COMMON   BANK0   BANK1   BANK3   BANK2
   493 ;;      Params:         0       0       0       0       0
   494 ;;      Locals:         0       0       0       0       0
   495 ;;      Temps:          0       2       0       0       0
   496 ;;      Totals:         0       2       0       0       0
   497 ;;Total ram usage:        2 bytes
   498 ;; Hardware stack levels required when called: 4
   499 ;; This function calls:
   500 ;;		_conversion
   501 ;;		_setup
   502 ;;		_setupADC
   503 ;;		_setupPWM
   504 ;; This function is called by:
   505 ;;		Startup code after reset
   506 ;; This function uses a non-reentrant model
   507 ;;
   508                           
   509     0676                     _main:	
   510                           ;psect for function _main
   511                           
   512     0676                     l1891:	
   513                           ;incstack = 0
   514                           ; Regs used in _main: [wreg+status,2+status,0+btemp+1+pclath+cstack]
   515                           
   516                           
   517                           ;main.c: 78:     setup();
   518     0676  120A  118A  27D3  120A  118A  	fcall	_setup
   519                           
   520                           ;main.c: 79:     setupADC();
   521     067B  120A  158A  27A8  120A  118A  	fcall	_setupADC
   522                           
   523                           ;main.c: 80:     setupPWM();
   524     0680  120A  158A  275A  120A  118A  	fcall	_setupPWM
   525     0685                     l1893:
   526                           
   527                           ;main.c: 81:     contador = 0;
   528     0685  1283               	bcf	3,5	;RP0=0, select bank0
   529     0686  1303               	bcf	3,6	;RP1=0, select bank0
   530     0687  01EC               	clrf	_contador
   531     0688                     l1895:
   532                           
   533                           ;main.c: 89:         ADCON0bits.CHS = 0b0001;
   534     0688  1283               	bcf	3,5	;RP0=0, select bank0
   535     0689  1303               	bcf	3,6	;RP1=0, select bank0
   536     068A  081F               	movf	31,w	;volatile
   537     068B  39C3               	andlw	-61
   538     068C  3804               	iorlw	4
   539     068D  009F               	movwf	31	;volatile
   540     068E                     l1897:
   541                           
   542                           ;main.c: 90:         _delay((unsigned long)((100)*(500000/4000000.0)));
   543     068E  3003               	movlw	3
   544     068F  1283               	bcf	3,5	;RP0=0, select bank0
   545     0690  1303               	bcf	3,6	;RP1=0, select bank0
   546     0691  00E2               	movwf	??_main
   547     0692                     u2627:
   548     0692  0BE2               	decfsz	??_main,f
   549     0693  2E92               	goto	u2627
   550     0694                     l1899:
   551                           
   552                           ;main.c: 91:         ADCON0bits.GO = 1;
   553     0694  1283               	bcf	3,5	;RP0=0, select bank0
   554     0695  1303               	bcf	3,6	;RP1=0, select bank0
   555     0696  149F               	bsf	31,1	;volatile
   556     0697                     l95:	
   557                           ;main.c: 94:         }
   558                           
   559                           
   560                           ;main.c: 92:         while (ADCON0bits.GO == 1){
   561     0697  189F               	btfsc	31,1	;volatile
   562     0698  2E9A               	goto	u2591
   563     0699  2E9B               	goto	u2590
   564     069A                     u2591:
   565     069A  2E97               	goto	l95
   566     069B                     u2590:
   567     069B                     l1901:
   568                           
   569                           ;main.c: 95:         ADC_Voltaje1 = ADRESH;
   570     069B  081E               	movf	30,w	;volatile
   571     069C  00E2               	movwf	??_main
   572     069D  01E3               	clrf	??_main+1
   573     069E  0862               	movf	??_main,w
   574     069F  00E8               	movwf	_ADC_Voltaje1
   575     06A0  0863               	movf	??_main+1,w
   576     06A1  00E9               	movwf	_ADC_Voltaje1+1
   577     06A2                     l1903:
   578                           
   579                           ;main.c: 96:         conversion(ADC_Voltaje1);
   580     06A2  0869               	movf	_ADC_Voltaje1+1,w
   581     06A3  00E1               	movwf	conversion@voltaje+1
   582     06A4  0868               	movf	_ADC_Voltaje1,w
   583     06A5  00E0               	movwf	conversion@voltaje
   584     06A6  120A  118A  277E  120A  118A  	fcall	_conversion
   585     06AB                     l1905:
   586                           
   587                           ;main.c: 97:         CCPR1L=equivalent;
   588     06AB  1283               	bcf	3,5	;RP0=0, select bank0
   589     06AC  1303               	bcf	3,6	;RP1=0, select bank0
   590     06AD  086A               	movf	_equivalent,w
   591     06AE  0095               	movwf	21	;volatile
   592     06AF                     l1907:
   593                           
   594                           ;main.c: 98:         _delay((unsigned long)((100)*(500000/4000000.0)));
   595     06AF  3003               	movlw	3
   596     06B0  1283               	bcf	3,5	;RP0=0, select bank0
   597     06B1  1303               	bcf	3,6	;RP1=0, select bank0
   598     06B2  00E2               	movwf	??_main
   599     06B3                     u2637:
   600     06B3  0BE2               	decfsz	??_main,f
   601     06B4  2EB3               	goto	u2637
   602     06B5                     l1909:
   603                           
   604                           ;main.c: 101:         ADCON0bits.CHS = 0b0010;
   605     06B5  1283               	bcf	3,5	;RP0=0, select bank0
   606     06B6  1303               	bcf	3,6	;RP1=0, select bank0
   607     06B7  081F               	movf	31,w	;volatile
   608     06B8  39C3               	andlw	-61
   609     06B9  3808               	iorlw	8
   610     06BA  009F               	movwf	31	;volatile
   611     06BB                     l1911:
   612                           
   613                           ;main.c: 102:         _delay((unsigned long)((100)*(500000/4000000.0)));
   614     06BB  3003               	movlw	3
   615     06BC  1283               	bcf	3,5	;RP0=0, select bank0
   616     06BD  1303               	bcf	3,6	;RP1=0, select bank0
   617     06BE  00E2               	movwf	??_main
   618     06BF                     u2647:
   619     06BF  0BE2               	decfsz	??_main,f
   620     06C0  2EBF               	goto	u2647
   621     06C1                     l1913:
   622                           
   623                           ;main.c: 103:         ADCON0bits.GO = 1;
   624     06C1  1283               	bcf	3,5	;RP0=0, select bank0
   625     06C2  1303               	bcf	3,6	;RP1=0, select bank0
   626     06C3  149F               	bsf	31,1	;volatile
   627     06C4                     l98:	
   628                           ;main.c: 106:         }
   629                           
   630                           
   631                           ;main.c: 104:         while (ADCON0bits.GO == 1){
   632     06C4  189F               	btfsc	31,1	;volatile
   633     06C5  2EC7               	goto	u2601
   634     06C6  2EC8               	goto	u2600
   635     06C7                     u2601:
   636     06C7  2EC4               	goto	l98
   637     06C8                     u2600:
   638     06C8                     l1915:
   639                           
   640                           ;main.c: 107:         ADC_Voltaje2 = ADRESH;
   641     06C8  081E               	movf	30,w	;volatile
   642     06C9  00E2               	movwf	??_main
   643     06CA  01E3               	clrf	??_main+1
   644     06CB  0862               	movf	??_main,w
   645     06CC  00E6               	movwf	_ADC_Voltaje2
   646     06CD  0863               	movf	??_main+1,w
   647     06CE  00E7               	movwf	_ADC_Voltaje2+1
   648     06CF                     l1917:
   649                           
   650                           ;main.c: 108:         conversion(ADC_Voltaje2);
   651     06CF  0867               	movf	_ADC_Voltaje2+1,w
   652     06D0  00E1               	movwf	conversion@voltaje+1
   653     06D1  0866               	movf	_ADC_Voltaje2,w
   654     06D2  00E0               	movwf	conversion@voltaje
   655     06D3  120A  118A  277E  120A  118A  	fcall	_conversion
   656     06D8                     l1919:
   657                           
   658                           ;main.c: 109:         CCPR2L=equivalent;
   659     06D8  1283               	bcf	3,5	;RP0=0, select bank0
   660     06D9  1303               	bcf	3,6	;RP1=0, select bank0
   661     06DA  086A               	movf	_equivalent,w
   662     06DB  009B               	movwf	27	;volatile
   663     06DC                     l1921:
   664                           
   665                           ;main.c: 110:         _delay((unsigned long)((100)*(500000/4000000.0)));
   666     06DC  3003               	movlw	3
   667     06DD  1283               	bcf	3,5	;RP0=0, select bank0
   668     06DE  1303               	bcf	3,6	;RP1=0, select bank0
   669     06DF  00E2               	movwf	??_main
   670     06E0                     u2657:
   671     06E0  0BE2               	decfsz	??_main,f
   672     06E1  2EE0               	goto	u2657
   673     06E2                     l1923:
   674                           
   675                           ;main.c: 113:         ADCON0bits.CHS = 0b0011;
   676     06E2  1283               	bcf	3,5	;RP0=0, select bank0
   677     06E3  1303               	bcf	3,6	;RP1=0, select bank0
   678     06E4  081F               	movf	31,w	;volatile
   679     06E5  39C3               	andlw	-61
   680     06E6  380C               	iorlw	12
   681     06E7  009F               	movwf	31	;volatile
   682     06E8                     l1925:
   683                           
   684                           ;main.c: 114:         _delay((unsigned long)((100)*(500000/4000000.0)));
   685     06E8  3003               	movlw	3
   686     06E9  1283               	bcf	3,5	;RP0=0, select bank0
   687     06EA  1303               	bcf	3,6	;RP1=0, select bank0
   688     06EB  00E2               	movwf	??_main
   689     06EC                     u2667:
   690     06EC  0BE2               	decfsz	??_main,f
   691     06ED  2EEC               	goto	u2667
   692     06EE                     l1927:
   693                           
   694                           ;main.c: 115:         ADCON0bits.GO = 1;
   695     06EE  1283               	bcf	3,5	;RP0=0, select bank0
   696     06EF  1303               	bcf	3,6	;RP1=0, select bank0
   697     06F0  149F               	bsf	31,1	;volatile
   698     06F1                     l101:	
   699                           ;main.c: 118:         }
   700                           
   701                           
   702                           ;main.c: 116:         while (ADCON0bits.GO == 1){
   703     06F1  189F               	btfsc	31,1	;volatile
   704     06F2  2EF4               	goto	u2611
   705     06F3  2EF5               	goto	u2610
   706     06F4                     u2611:
   707     06F4  2EF1               	goto	l101
   708     06F5                     u2610:
   709     06F5                     l1929:
   710                           
   711                           ;main.c: 119:         ADC_Voltaje3 = ADRESH;
   712     06F5  081E               	movf	30,w	;volatile
   713     06F6  00E2               	movwf	??_main
   714     06F7  01E3               	clrf	??_main+1
   715     06F8  0862               	movf	??_main,w
   716     06F9  00E4               	movwf	_ADC_Voltaje3
   717     06FA  0863               	movf	??_main+1,w
   718     06FB  00E5               	movwf	_ADC_Voltaje3+1
   719                           
   720                           ;main.c: 120:         _delay((unsigned long)((100)*(500000/4000000.0)));
   721     06FC  3003               	movlw	3
   722     06FD  1283               	bcf	3,5	;RP0=0, select bank0
   723     06FE  1303               	bcf	3,6	;RP1=0, select bank0
   724     06FF  00E2               	movwf	??_main
   725     0700                     u2677:
   726     0700  0BE2               	decfsz	??_main,f
   727     0701  2F00               	goto	u2677
   728     0702  2E88               	goto	l1895
   729     0703  120A  118A  280C   	ljmp	start
   730     0706                     __end_of_main:
   731                           
   732                           	psect	text1
   733     0F5A                     __ptext1:	
   734 ;; *************** function _setupPWM *****************
   735 ;; Defined at:
   736 ;;		line 180 in file "main.c"
   737 ;; Parameters:    Size  Location     Type
   738 ;;		None
   739 ;; Auto vars:     Size  Location     Type
   740 ;;		None
   741 ;; Return value:  Size  Location     Type
   742 ;;                  1    wreg      void 
   743 ;; Registers used:
   744 ;;		wreg, status,2, status,0
   745 ;; Tracked objects:
   746 ;;		On entry : 0/0
   747 ;;		On exit  : 0/0
   748 ;;		Unchanged: 0/0
   749 ;; Data sizes:     COMMON   BANK0   BANK1   BANK3   BANK2
   750 ;;      Params:         0       0       0       0       0
   751 ;;      Locals:         0       0       0       0       0
   752 ;;      Temps:          0       0       0       0       0
   753 ;;      Totals:         0       0       0       0       0
   754 ;;Total ram usage:        0 bytes
   755 ;; Hardware stack levels used: 1
   756 ;; Hardware stack levels required when called: 1
   757 ;; This function calls:
   758 ;;		Nothing
   759 ;; This function is called by:
   760 ;;		_main
   761 ;; This function uses a non-reentrant model
   762 ;;
   763                           
   764     0F5A                     _setupPWM:	
   765                           ;psect for function _setupPWM
   766                           
   767     0F5A                     l1731:	
   768                           ;incstack = 0
   769                           ; Regs used in _setupPWM: [wreg+status,2+status,0]
   770                           
   771                           
   772                           ;main.c: 182:     TRISCbits.TRISC2 = 1;
   773     0F5A  1683               	bsf	3,5	;RP0=1, select bank1
   774     0F5B  1303               	bcf	3,6	;RP1=0, select bank1
   775     0F5C  1507               	bsf	7,2	;volatile
   776                           
   777                           ;main.c: 183:     TRISCbits.TRISC1 = 1;
   778     0F5D  1487               	bsf	7,1	;volatile
   779     0F5E                     l1733:
   780                           
   781                           ;main.c: 185:     PR2 = 255;
   782     0F5E  30FF               	movlw	255
   783     0F5F  0092               	movwf	18	;volatile
   784     0F60                     l1735:
   785                           
   786                           ;main.c: 187:     CCP1CONbits.P1M = 0b00;
   787     0F60  303F               	movlw	-193
   788     0F61  1283               	bcf	3,5	;RP0=0, select bank0
   789     0F62  1303               	bcf	3,6	;RP1=0, select bank0
   790     0F63  0597               	andwf	23,f	;volatile
   791     0F64                     l1737:
   792                           
   793                           ;main.c: 190:     CCP1CONbits.CCP1M = 0b1100;
   794     0F64  0817               	movf	23,w	;volatile
   795     0F65  39F0               	andlw	-16
   796     0F66  380C               	iorlw	12
   797     0F67  0097               	movwf	23	;volatile
   798     0F68                     l1739:
   799                           
   800                           ;main.c: 194:     CCP2CONbits.CCP2M = 0b1111;
   801     0F68  300F               	movlw	15
   802     0F69  049D               	iorwf	29,f	;volatile
   803     0F6A                     l1741:
   804                           
   805                           ;main.c: 197:     CCP1CONbits.DC1B = 0b11;
   806     0F6A  3030               	movlw	48
   807     0F6B  0497               	iorwf	23,f	;volatile
   808                           
   809                           ;main.c: 198:     CCPR1L = 11;
   810     0F6C  300B               	movlw	11
   811     0F6D  0095               	movwf	21	;volatile
   812     0F6E                     l1743:
   813                           
   814                           ;main.c: 201:     CCP2CONbits.DC2B1 = 0b1;
   815     0F6E  169D               	bsf	29,5	;volatile
   816     0F6F                     l1745:
   817                           
   818                           ;main.c: 202:     CCP2CONbits.DC2B0 = 0b1;
   819     0F6F  161D               	bsf	29,4	;volatile
   820                           
   821                           ;main.c: 203:     CCPR2L = 11;
   822     0F70  300B               	movlw	11
   823     0F71  009B               	movwf	27	;volatile
   824     0F72                     l1747:
   825                           
   826                           ;main.c: 206:     PIR1bits.TMR2IF = 0;
   827     0F72  108C               	bcf	12,1	;volatile
   828     0F73                     l1749:
   829                           
   830                           ;main.c: 207:     T2CONbits.T2CKPS = 0b11;
   831     0F73  3003               	movlw	3
   832     0F74  0492               	iorwf	18,f	;volatile
   833     0F75                     l1751:
   834                           
   835                           ;main.c: 208:     T2CONbits.TMR2ON = 1;
   836     0F75  1512               	bsf	18,2	;volatile
   837     0F76                     l115:	
   838                           ;main.c: 212:     }
   839                           
   840                           
   841                           ;main.c: 210:     while(!PIR1bits.TMR2IF){
   842     0F76  1C8C               	btfss	12,1	;volatile
   843     0F77  2F79               	goto	u2281
   844     0F78  2F7A               	goto	u2280
   845     0F79                     u2281:
   846     0F79  2F76               	goto	l115
   847     0F7A                     u2280:
   848     0F7A                     l117:
   849                           
   850                           ;main.c: 213:     TRISCbits.TRISC2=0;
   851     0F7A  1683               	bsf	3,5	;RP0=1, select bank1
   852     0F7B  1303               	bcf	3,6	;RP1=0, select bank1
   853     0F7C  1107               	bcf	7,2	;volatile
   854                           
   855                           ;main.c: 214:     TRISCbits.TRISC1=0;
   856     0F7D  1087               	bcf	7,1	;volatile
   857     0F7E                     l118:
   858     0F7E  0008               	return
   859     0F7F                     __end_of_setupPWM:
   860                           
   861                           	psect	text2
   862     0FA8                     __ptext2:	
   863 ;; *************** function _setupADC *****************
   864 ;; Defined at:
   865 ;;		line 217 in file "main.c"
   866 ;; Parameters:    Size  Location     Type
   867 ;;		None
   868 ;; Auto vars:     Size  Location     Type
   869 ;;		None
   870 ;; Return value:  Size  Location     Type
   871 ;;                  1    wreg      void 
   872 ;; Registers used:
   873 ;;		wreg, status,2, status,0
   874 ;; Tracked objects:
   875 ;;		On entry : 0/0
   876 ;;		On exit  : 0/0
   877 ;;		Unchanged: 0/0
   878 ;; Data sizes:     COMMON   BANK0   BANK1   BANK3   BANK2
   879 ;;      Params:         0       0       0       0       0
   880 ;;      Locals:         0       0       0       0       0
   881 ;;      Temps:          1       0       0       0       0
   882 ;;      Totals:         1       0       0       0       0
   883 ;;Total ram usage:        1 bytes
   884 ;; Hardware stack levels used: 1
   885 ;; Hardware stack levels required when called: 1
   886 ;; This function calls:
   887 ;;		Nothing
   888 ;; This function is called by:
   889 ;;		_main
   890 ;; This function uses a non-reentrant model
   891 ;;
   892                           
   893     0FA8                     _setupADC:	
   894                           ;psect for function _setupADC
   895                           
   896     0FA8                     l1717:	
   897                           ;incstack = 0
   898                           ; Regs used in _setupADC: [wreg+status,2+status,0]
   899                           
   900                           
   901                           ;main.c: 219:     TRISAbits.TRISA1 = 1;
   902     0FA8  1683               	bsf	3,5	;RP0=1, select bank1
   903     0FA9  1303               	bcf	3,6	;RP1=0, select bank1
   904     0FAA  1485               	bsf	5,1	;volatile
   905                           
   906                           ;main.c: 220:     ANSELbits.ANS1 = 1;
   907     0FAB  1683               	bsf	3,5	;RP0=1, select bank3
   908     0FAC  1703               	bsf	3,6	;RP1=1, select bank3
   909     0FAD  1488               	bsf	8,1	;volatile
   910                           
   911                           ;main.c: 222:     TRISAbits.TRISA2 = 1;
   912     0FAE  1683               	bsf	3,5	;RP0=1, select bank1
   913     0FAF  1303               	bcf	3,6	;RP1=0, select bank1
   914     0FB0  1505               	bsf	5,2	;volatile
   915                           
   916                           ;main.c: 223:     ANSELbits.ANS2 = 1;
   917     0FB1  1683               	bsf	3,5	;RP0=1, select bank3
   918     0FB2  1703               	bsf	3,6	;RP1=1, select bank3
   919     0FB3  1508               	bsf	8,2	;volatile
   920                           
   921                           ;main.c: 225:     TRISAbits.TRISA3 = 1;
   922     0FB4  1683               	bsf	3,5	;RP0=1, select bank1
   923     0FB5  1303               	bcf	3,6	;RP1=0, select bank1
   924     0FB6  1585               	bsf	5,3	;volatile
   925                           
   926                           ;main.c: 226:     ANSELbits.ANS3 = 1;
   927     0FB7  1683               	bsf	3,5	;RP0=1, select bank3
   928     0FB8  1703               	bsf	3,6	;RP1=1, select bank3
   929     0FB9  1588               	bsf	8,3	;volatile
   930     0FBA                     l1719:
   931                           
   932                           ;main.c: 229:     ADCON0bits.ADCS = 0b01;
   933     0FBA  1283               	bcf	3,5	;RP0=0, select bank0
   934     0FBB  1303               	bcf	3,6	;RP1=0, select bank0
   935     0FBC  081F               	movf	31,w	;volatile
   936     0FBD  393F               	andlw	-193
   937     0FBE  3840               	iorlw	64
   938     0FBF  009F               	movwf	31	;volatile
   939     0FC0                     l1721:
   940                           
   941                           ;main.c: 231:     ADCON1bits.VCFG1 = 0;
   942     0FC0  1683               	bsf	3,5	;RP0=1, select bank1
   943     0FC1  1303               	bcf	3,6	;RP1=0, select bank1
   944     0FC2  129F               	bcf	31,5	;volatile
   945     0FC3                     l1723:
   946                           
   947                           ;main.c: 232:     ADCON1bits.VCFG0 = 0;
   948     0FC3  121F               	bcf	31,4	;volatile
   949     0FC4                     l1725:
   950                           
   951                           ;main.c: 235:     ADCON1bits.ADFM = 0;
   952     0FC4  139F               	bcf	31,7	;volatile
   953                           
   954                           ;main.c: 238:     ADCON0bits.CHS = 0b0001;
   955     0FC5  1283               	bcf	3,5	;RP0=0, select bank0
   956     0FC6  1303               	bcf	3,6	;RP1=0, select bank0
   957     0FC7  081F               	movf	31,w	;volatile
   958     0FC8  39C3               	andlw	-61
   959     0FC9  3804               	iorlw	4
   960     0FCA  009F               	movwf	31	;volatile
   961     0FCB                     l1727:
   962                           
   963                           ;main.c: 243:     ADCON0bits.ADON = 1;
   964     0FCB  141F               	bsf	31,0	;volatile
   965     0FCC                     l1729:
   966                           
   967                           ;main.c: 246:     _delay((unsigned long)((100)*(500000/4000000.0)));
   968     0FCC  3003               	movlw	3
   969     0FCD  00F3               	movwf	??_setupADC
   970     0FCE                     u2687:
   971     0FCE  0BF3               	decfsz	??_setupADC,f
   972     0FCF  2FCE               	goto	u2687
   973     0FD0  2FD1               	nop2
   974     0FD1                     l121:
   975     0FD1  0008               	return
   976     0FD2                     __end_of_setupADC:
   977                           
   978                           	psect	text3
   979     07D3                     __ptext3:	
   980 ;; *************** function _setup *****************
   981 ;; Defined at:
   982 ;;		line 139 in file "main.c"
   983 ;; Parameters:    Size  Location     Type
   984 ;;		None
   985 ;; Auto vars:     Size  Location     Type
   986 ;;		None
   987 ;; Return value:  Size  Location     Type
   988 ;;                  1    wreg      void 
   989 ;; Registers used:
   990 ;;		wreg, status,2, status,0
   991 ;; Tracked objects:
   992 ;;		On entry : 0/0
   993 ;;		On exit  : 0/0
   994 ;;		Unchanged: 0/0
   995 ;; Data sizes:     COMMON   BANK0   BANK1   BANK3   BANK2
   996 ;;      Params:         0       0       0       0       0
   997 ;;      Locals:         0       0       0       0       0
   998 ;;      Temps:          0       0       0       0       0
   999 ;;      Totals:         0       0       0       0       0
  1000 ;;Total ram usage:        0 bytes
  1001 ;; Hardware stack levels used: 1
  1002 ;; Hardware stack levels required when called: 1
  1003 ;; This function calls:
  1004 ;;		Nothing
  1005 ;; This function is called by:
  1006 ;;		_main
  1007 ;; This function uses a non-reentrant model
  1008 ;;
  1009                           
  1010     07D3                     _setup:	
  1011                           ;psect for function _setup
  1012                           
  1013     07D3                     l1689:	
  1014                           ;incstack = 0
  1015                           ; Regs used in _setup: [wreg+status,2+status,0]
  1016                           
  1017                           
  1018                           ;main.c: 143:     ANSELH = 0;
  1019     07D3  1683               	bsf	3,5	;RP0=1, select bank3
  1020     07D4  1703               	bsf	3,6	;RP1=1, select bank3
  1021     07D5  0189               	clrf	9	;volatile
  1022     07D6                     l1691:
  1023                           
  1024                           ;main.c: 145:     TRISAbits.TRISA7 = 0;
  1025     07D6  1683               	bsf	3,5	;RP0=1, select bank1
  1026     07D7  1303               	bcf	3,6	;RP1=0, select bank1
  1027     07D8  1385               	bcf	5,7	;volatile
  1028                           
  1029                           ;main.c: 146:     TRISB = 0b00000000;
  1030     07D9  0186               	clrf	6	;volatile
  1031                           
  1032                           ;main.c: 147:     TRISC = 0b00000000;
  1033     07DA  0187               	clrf	7	;volatile
  1034                           
  1035                           ;main.c: 148:     TRISD = 0b00000000;
  1036     07DB  0188               	clrf	8	;volatile
  1037                           
  1038                           ;main.c: 149:     TRISE = 0b00000000;
  1039     07DC  0189               	clrf	9	;volatile
  1040     07DD                     l1693:
  1041                           
  1042                           ;main.c: 151:     PORTAbits.RA7 = 0;
  1043     07DD  1283               	bcf	3,5	;RP0=0, select bank0
  1044     07DE  1303               	bcf	3,6	;RP1=0, select bank0
  1045     07DF  1385               	bcf	5,7	;volatile
  1046                           
  1047                           ;main.c: 152:     PORTB = 0;
  1048     07E0  0186               	clrf	6	;volatile
  1049                           
  1050                           ;main.c: 153:     PORTC = 0;
  1051     07E1  0187               	clrf	7	;volatile
  1052                           
  1053                           ;main.c: 154:     PORTD = 0;
  1054     07E2  0188               	clrf	8	;volatile
  1055                           
  1056                           ;main.c: 155:     PORTE = 0;
  1057     07E3  0189               	clrf	9	;volatile
  1058     07E4                     l1695:
  1059                           
  1060                           ;main.c: 158:     OSCCONbits.IRCF = 0b011;
  1061     07E4  1683               	bsf	3,5	;RP0=1, select bank1
  1062     07E5  1303               	bcf	3,6	;RP1=0, select bank1
  1063     07E6  080F               	movf	15,w	;volatile
  1064     07E7  398F               	andlw	-113
  1065     07E8  3830               	iorlw	48
  1066     07E9  008F               	movwf	15	;volatile
  1067     07EA                     l1697:
  1068                           
  1069                           ;main.c: 159:     OSCCONbits.SCS = 1;
  1070     07EA  140F               	bsf	15,0	;volatile
  1071     07EB                     l1699:
  1072                           
  1073                           ;main.c: 163:     INTCONbits.GIE = 1;
  1074     07EB  178B               	bsf	11,7	;volatile
  1075     07EC                     l1701:
  1076                           
  1077                           ;main.c: 166:     PIE1bits.ADIE = 1;
  1078     07EC  170C               	bsf	12,6	;volatile
  1079     07ED                     l1703:
  1080                           
  1081                           ;main.c: 167:     INTCONbits.TMR0IE = 1;
  1082     07ED  168B               	bsf	11,5	;volatile
  1083     07EE                     l1705:
  1084                           
  1085                           ;main.c: 169:     PIR1bits.ADIF = 0;
  1086     07EE  1283               	bcf	3,5	;RP0=0, select bank0
  1087     07EF  1303               	bcf	3,6	;RP1=0, select bank0
  1088     07F0  130C               	bcf	12,6	;volatile
  1089     07F1                     l1707:
  1090                           
  1091                           ;main.c: 170:     INTCONbits.T0IF = 0;
  1092     07F1  110B               	bcf	11,2	;volatile
  1093     07F2                     l1709:
  1094                           
  1095                           ;main.c: 173:     OPTION_REGbits.T0CS = 0;
  1096     07F2  1683               	bsf	3,5	;RP0=1, select bank1
  1097     07F3  1303               	bcf	3,6	;RP1=0, select bank1
  1098     07F4  1281               	bcf	1,5	;volatile
  1099     07F5                     l1711:
  1100                           
  1101                           ;main.c: 174:     OPTION_REGbits.PSA = 0;
  1102     07F5  1181               	bcf	1,3	;volatile
  1103     07F6                     l1713:
  1104                           
  1105                           ;main.c: 175:     OPTION_REGbits.PS = 0b011;
  1106     07F6  0801               	movf	1,w	;volatile
  1107     07F7  39F8               	andlw	-8
  1108     07F8  3803               	iorlw	3
  1109     07F9  0081               	movwf	1	;volatile
  1110     07FA                     l1715:
  1111                           
  1112                           ;main.c: 176:     TMR0 = 240;
  1113     07FA  30F0               	movlw	240
  1114     07FB  1283               	bcf	3,5	;RP0=0, select bank0
  1115     07FC  1303               	bcf	3,6	;RP1=0, select bank0
  1116     07FD  0081               	movwf	1	;volatile
  1117     07FE                     l112:
  1118     07FE  0008               	return
  1119     07FF                     __end_of_setup:
  1120                           
  1121                           	psect	text4
  1122     077E                     __ptext4:	
  1123 ;; *************** function _conversion *****************
  1124 ;; Defined at:
  1125 ;;		line 133 in file "main.c"
  1126 ;; Parameters:    Size  Location     Type
  1127 ;;  voltaje         2   64[BANK0 ] int 
  1128 ;; Auto vars:     Size  Location     Type
  1129 ;;		None
  1130 ;; Return value:  Size  Location     Type
  1131 ;;                  1    wreg      void 
  1132 ;; Registers used:
  1133 ;;		wreg, status,2, status,0, btemp+1, pclath, cstack
  1134 ;; Tracked objects:
  1135 ;;		On entry : 0/0
  1136 ;;		On exit  : 0/0
  1137 ;;		Unchanged: 0/0
  1138 ;; Data sizes:     COMMON   BANK0   BANK1   BANK3   BANK2
  1139 ;;      Params:         0       2       0       0       0
  1140 ;;      Locals:         0       0       0       0       0
  1141 ;;      Temps:          0       0       0       0       0
  1142 ;;      Totals:         0       2       0       0       0
  1143 ;;Total ram usage:        2 bytes
  1144 ;; Hardware stack levels used: 1
  1145 ;; Hardware stack levels required when called: 3
  1146 ;; This function calls:
  1147 ;;		___fladd
  1148 ;;		___flmul
  1149 ;;		___fltol
  1150 ;;		___xxtofl
  1151 ;; This function is called by:
  1152 ;;		_main
  1153 ;; This function uses a non-reentrant model
  1154 ;;
  1155                           
  1156     077E                     _conversion:	
  1157                           ;psect for function _conversion
  1158                           
  1159     077E                     l1889:	
  1160                           ;incstack = 0
  1161                           ; Regs used in _conversion: [wreg+status,2+status,0+btemp+1+pclath+cstack]
  1162                           
  1163                           
  1164                           ;main.c: 135:     equivalent = (unsigned short) (7+( (float)(16)/(255) ) * (voltaje-0));
  1165     077E  1283               	bcf	3,5	;RP0=0, select bank0
  1166     077F  1303               	bcf	3,6	;RP1=0, select bank0
  1167     0780  0860               	movf	conversion@voltaje,w
  1168     0781  00F3               	movwf	___xxtofl@val
  1169     0782  0861               	movf	conversion@voltaje+1,w
  1170     0783  00F4               	movwf	___xxtofl@val+1
  1171     0784  3000               	movlw	0
  1172     0785  1BF4               	btfsc	___xxtofl@val+1,7
  1173     0786  30FF               	movlw	255
  1174     0787  00F5               	movwf	___xxtofl@val+2
  1175     0788  00F6               	movwf	___xxtofl@val+3
  1176     0789  3001               	movlw	1
  1177     078A  120A  118A  25BC  120A  118A  	fcall	___xxtofl
  1178     078F  0876               	movf	?___xxtofl+3,w
  1179     0790  1283               	bcf	3,5	;RP0=0, select bank0
  1180     0791  1303               	bcf	3,6	;RP1=0, select bank0
  1181     0792  00B1               	movwf	___flmul@a+3
  1182     0793  0875               	movf	?___xxtofl+2,w
  1183     0794  00B0               	movwf	___flmul@a+2
  1184     0795  0874               	movf	?___xxtofl+1,w
  1185     0796  00AF               	movwf	___flmul@a+1
  1186     0797  0873               	movf	?___xxtofl,w
  1187     0798  00AE               	movwf	___flmul@a
  1188     0799  303D               	movlw	61
  1189     079A  00AD               	movwf	___flmul@b+3
  1190     079B  3080               	movlw	128
  1191     079C  00AC               	movwf	___flmul@b+2
  1192     079D  3080               	movlw	128
  1193     079E  00AB               	movwf	___flmul@b+1
  1194     079F  3081               	movlw	129
  1195     07A0  00AA               	movwf	___flmul@b
  1196     07A1  120A  118A  201F  120A  118A  	fcall	___flmul
  1197     07A6  1283               	bcf	3,5	;RP0=0, select bank0
  1198     07A7  1303               	bcf	3,6	;RP1=0, select bank0
  1199     07A8  082D               	movf	?___flmul+3,w
  1200     07A9  00CB               	movwf	___fladd@a+3
  1201     07AA  082C               	movf	?___flmul+2,w
  1202     07AB  00CA               	movwf	___fladd@a+2
  1203     07AC  082B               	movf	?___flmul+1,w
  1204     07AD  00C9               	movwf	___fladd@a+1
  1205     07AE  082A               	movf	?___flmul,w
  1206     07AF  00C8               	movwf	___fladd@a
  1207     07B0  3040               	movlw	64
  1208     07B1  00C7               	movwf	___fladd@b+3
  1209     07B2  30E0               	movlw	224
  1210     07B3  00C6               	movwf	___fladd@b+2
  1211     07B4  3000               	movlw	0
  1212     07B5  00C5               	movwf	___fladd@b+1
  1213     07B6  3000               	movlw	0
  1214     07B7  00C4               	movwf	___fladd@b
  1215     07B8  120A  118A  2364  120A  118A  	fcall	___fladd
  1216     07BD  1283               	bcf	3,5	;RP0=0, select bank0
  1217     07BE  1303               	bcf	3,6	;RP1=0, select bank0
  1218     07BF  0847               	movf	?___fladd+3,w
  1219     07C0  00DB               	movwf	___fltol@f1+3
  1220     07C1  0846               	movf	?___fladd+2,w
  1221     07C2  00DA               	movwf	___fltol@f1+2
  1222     07C3  0845               	movf	?___fladd+1,w
  1223     07C4  00D9               	movwf	___fltol@f1+1
  1224     07C5  0844               	movf	?___fladd,w
  1225     07C6  00D8               	movwf	___fltol@f1
  1226     07C7  120A  118A  2706  120A  118A  	fcall	___fltol
  1227     07CC  1283               	bcf	3,5	;RP0=0, select bank0
  1228     07CD  1303               	bcf	3,6	;RP1=0, select bank0
  1229     07CE  0859               	movf	?___fltol+1,w
  1230     07CF  00EB               	movwf	_equivalent+1
  1231     07D0  0858               	movf	?___fltol,w
  1232     07D1  00EA               	movwf	_equivalent
  1233     07D2                     l109:
  1234     07D2  0008               	return
  1235     07D3                     __end_of_conversion:
  1236                           
  1237                           	psect	text5
  1238     05BC                     __ptext5:	
  1239 ;; *************** function ___xxtofl *****************
  1240 ;; Defined at:
  1241 ;;		line 10 in file "C:\Program Files\Microchip\xc8\v2.40\pic\sources\c90\common\xxtofl.c"
  1242 ;; Parameters:    Size  Location     Type
  1243 ;;  sign            1    wreg     unsigned char 
  1244 ;;  val             4    3[COMMON] long 
  1245 ;; Auto vars:     Size  Location     Type
  1246 ;;  sign            1    4[BANK0 ] unsigned char 
  1247 ;;  arg             4    6[BANK0 ] unsigned long 
  1248 ;;  exp             1    5[BANK0 ] unsigned char 
  1249 ;; Return value:  Size  Location     Type
  1250 ;;                  4    3[COMMON] unsigned char 
  1251 ;; Registers used:
  1252 ;;		wreg, status,2, status,0
  1253 ;; Tracked objects:
  1254 ;;		On entry : 0/0
  1255 ;;		On exit  : 0/0
  1256 ;;		Unchanged: 0/0
  1257 ;; Data sizes:     COMMON   BANK0   BANK1   BANK3   BANK2
  1258 ;;      Params:         4       0       0       0       0
  1259 ;;      Locals:         0       6       0       0       0
  1260 ;;      Temps:          0       4       0       0       0
  1261 ;;      Totals:         4      10       0       0       0
  1262 ;;Total ram usage:       14 bytes
  1263 ;; Hardware stack levels used: 1
  1264 ;; Hardware stack levels required when called: 1
  1265 ;; This function calls:
  1266 ;;		Nothing
  1267 ;; This function is called by:
  1268 ;;		_conversion
  1269 ;; This function uses a non-reentrant model
  1270 ;;
  1271                           
  1272     05BC                     ___xxtofl:	
  1273                           ;psect for function ___xxtofl
  1274                           
  1275                           
  1276                           ;incstack = 0
  1277                           ; Regs used in ___xxtofl: [wreg+status,2+status,0]
  1278                           ;___xxtofl@sign stored from wreg
  1279     05BC  1283               	bcf	3,5	;RP0=0, select bank0
  1280     05BD  1303               	bcf	3,6	;RP1=0, select bank0
  1281     05BE  00A4               	movwf	___xxtofl@sign
  1282     05BF                     l1845:
  1283     05BF  0824               	movf	___xxtofl@sign,w
  1284     05C0  1903               	btfsc	3,2
  1285     05C1  2DC3               	goto	u2451
  1286     05C2  2DC4               	goto	u2450
  1287     05C3                     u2451:
  1288     05C3  2DD8               	goto	l1851
  1289     05C4                     u2450:
  1290     05C4                     l1847:
  1291     05C4  1FF6               	btfss	___xxtofl@val+3,7
  1292     05C5  2DC7               	goto	u2461
  1293     05C6  2DC8               	goto	u2460
  1294     05C7                     u2461:
  1295     05C7  2DD8               	goto	l1851
  1296     05C8                     u2460:
  1297     05C8                     l1849:
  1298     05C8  0973               	comf	___xxtofl@val,w
  1299     05C9  00A6               	movwf	___xxtofl@arg
  1300     05CA  0974               	comf	___xxtofl@val+1,w
  1301     05CB  00A7               	movwf	___xxtofl@arg+1
  1302     05CC  0975               	comf	___xxtofl@val+2,w
  1303     05CD  00A8               	movwf	___xxtofl@arg+2
  1304     05CE  0976               	comf	___xxtofl@val+3,w
  1305     05CF  00A9               	movwf	___xxtofl@arg+3
  1306     05D0  0AA6               	incf	___xxtofl@arg,f
  1307     05D1  1903               	skipnz
  1308     05D2  0AA7               	incf	___xxtofl@arg+1,f
  1309     05D3  1903               	skipnz
  1310     05D4  0AA8               	incf	___xxtofl@arg+2,f
  1311     05D5  1903               	skipnz
  1312     05D6  0AA9               	incf	___xxtofl@arg+3,f
  1313     05D7  2DE0               	goto	l640
  1314     05D8                     l1851:
  1315     05D8  0876               	movf	___xxtofl@val+3,w
  1316     05D9  00A9               	movwf	___xxtofl@arg+3
  1317     05DA  0875               	movf	___xxtofl@val+2,w
  1318     05DB  00A8               	movwf	___xxtofl@arg+2
  1319     05DC  0874               	movf	___xxtofl@val+1,w
  1320     05DD  00A7               	movwf	___xxtofl@arg+1
  1321     05DE  0873               	movf	___xxtofl@val,w
  1322     05DF  00A6               	movwf	___xxtofl@arg
  1323     05E0                     l640:
  1324     05E0  0876               	movf	___xxtofl@val+3,w
  1325     05E1  0475               	iorwf	___xxtofl@val+2,w
  1326     05E2  0474               	iorwf	___xxtofl@val+1,w
  1327     05E3  0473               	iorwf	___xxtofl@val,w
  1328     05E4  1D03               	skipz
  1329     05E5  2DE7               	goto	u2471
  1330     05E6  2DE8               	goto	u2470
  1331     05E7                     u2471:
  1332     05E7  2DF1               	goto	l1857
  1333     05E8                     u2470:
  1334     05E8                     l1853:
  1335     05E8  3000               	movlw	0
  1336     05E9  00F6               	movwf	?___xxtofl+3
  1337     05EA  3000               	movlw	0
  1338     05EB  00F5               	movwf	?___xxtofl+2
  1339     05EC  3000               	movlw	0
  1340     05ED  00F4               	movwf	?___xxtofl+1
  1341     05EE  3000               	movlw	0
  1342     05EF  00F3               	movwf	?___xxtofl
  1343     05F0  2E75               	goto	l642
  1344     05F1                     l1857:
  1345     05F1  3096               	movlw	150
  1346     05F2  00A5               	movwf	___xxtofl@exp
  1347     05F3  2E01               	goto	l1861
  1348     05F4                     l1859:
  1349     05F4  3001               	movlw	1
  1350     05F5  00A0               	movwf	??___xxtofl
  1351     05F6  0820               	movf	??___xxtofl,w
  1352     05F7  07A5               	addwf	___xxtofl@exp,f
  1353     05F8  3001               	movlw	1
  1354     05F9                     u2485:
  1355     05F9  1003               	clrc
  1356     05FA  0CA9               	rrf	___xxtofl@arg+3,f
  1357     05FB  0CA8               	rrf	___xxtofl@arg+2,f
  1358     05FC  0CA7               	rrf	___xxtofl@arg+1,f
  1359     05FD  0CA6               	rrf	___xxtofl@arg,f
  1360     05FE  3EFF               	addlw	-1
  1361     05FF  1D03               	skipz
  1362     0600  2DF9               	goto	u2485
  1363     0601                     l1861:
  1364     0601  30FE               	movlw	254
  1365     0602  0529               	andwf	___xxtofl@arg+3,w
  1366     0603  1D03               	btfss	3,2
  1367     0604  2E06               	goto	u2491
  1368     0605  2E07               	goto	u2490
  1369     0606                     u2491:
  1370     0606  2DF4               	goto	l1859
  1371     0607                     u2490:
  1372     0607  2E23               	goto	l646
  1373     0608                     l1863:
  1374     0608  3001               	movlw	1
  1375     0609  00A0               	movwf	??___xxtofl
  1376     060A  0820               	movf	??___xxtofl,w
  1377     060B  07A5               	addwf	___xxtofl@exp,f
  1378     060C                     l1865:
  1379     060C  3001               	movlw	1
  1380     060D  07A6               	addwf	___xxtofl@arg,f
  1381     060E  3000               	movlw	0
  1382     060F  1803               	skipnc
  1383     0610  3001               	movlw	1
  1384     0611  07A7               	addwf	___xxtofl@arg+1,f
  1385     0612  3000               	movlw	0
  1386     0613  1803               	skipnc
  1387     0614  3001               	movlw	1
  1388     0615  07A8               	addwf	___xxtofl@arg+2,f
  1389     0616  3000               	movlw	0
  1390     0617  1803               	skipnc
  1391     0618  3001               	movlw	1
  1392     0619  07A9               	addwf	___xxtofl@arg+3,f
  1393     061A                     l1867:
  1394     061A  3001               	movlw	1
  1395     061B                     u2505:
  1396     061B  1003               	clrc
  1397     061C  0CA9               	rrf	___xxtofl@arg+3,f
  1398     061D  0CA8               	rrf	___xxtofl@arg+2,f
  1399     061E  0CA7               	rrf	___xxtofl@arg+1,f
  1400     061F  0CA6               	rrf	___xxtofl@arg,f
  1401     0620  3EFF               	addlw	-1
  1402     0621  1D03               	skipz
  1403     0622  2E1B               	goto	u2505
  1404     0623                     l646:
  1405     0623  30FF               	movlw	255
  1406     0624  0529               	andwf	___xxtofl@arg+3,w
  1407     0625  1D03               	btfss	3,2
  1408     0626  2E28               	goto	u2511
  1409     0627  2E29               	goto	u2510
  1410     0628                     u2511:
  1411     0628  2E08               	goto	l1863
  1412     0629                     u2510:
  1413     0629  2E35               	goto	l1871
  1414     062A                     l1869:
  1415     062A  3001               	movlw	1
  1416     062B  02A5               	subwf	___xxtofl@exp,f
  1417     062C  3001               	movlw	1
  1418     062D  00A0               	movwf	??___xxtofl
  1419     062E                     u2525:
  1420     062E  1003               	clrc
  1421     062F  0DA6               	rlf	___xxtofl@arg,f
  1422     0630  0DA7               	rlf	___xxtofl@arg+1,f
  1423     0631  0DA8               	rlf	___xxtofl@arg+2,f
  1424     0632  0DA9               	rlf	___xxtofl@arg+3,f
  1425     0633  0BA0               	decfsz	??___xxtofl,f
  1426     0634  2E2E               	goto	u2525
  1427     0635                     l1871:
  1428     0635  1BA8               	btfsc	___xxtofl@arg+2,7
  1429     0636  2E38               	goto	u2531
  1430     0637  2E39               	goto	u2530
  1431     0638                     u2531:
  1432     0638  2E3F               	goto	l653
  1433     0639                     u2530:
  1434     0639                     l1873:
  1435     0639  3002               	movlw	2
  1436     063A  0225               	subwf	___xxtofl@exp,w
  1437     063B  1803               	skipnc
  1438     063C  2E3E               	goto	u2541
  1439     063D  2E3F               	goto	u2540
  1440     063E                     u2541:
  1441     063E  2E2A               	goto	l1869
  1442     063F                     u2540:
  1443     063F                     l653:
  1444     063F  1825               	btfsc	___xxtofl@exp,0
  1445     0640  2E42               	goto	u2551
  1446     0641  2E43               	goto	u2550
  1447     0642                     u2551:
  1448     0642  2E4B               	goto	l654
  1449     0643                     u2550:
  1450     0643                     l1875:
  1451     0643  30FF               	movlw	255
  1452     0644  05A6               	andwf	___xxtofl@arg,f
  1453     0645  30FF               	movlw	255
  1454     0646  05A7               	andwf	___xxtofl@arg+1,f
  1455     0647  307F               	movlw	127
  1456     0648  05A8               	andwf	___xxtofl@arg+2,f
  1457     0649  30FF               	movlw	255
  1458     064A  05A9               	andwf	___xxtofl@arg+3,f
  1459     064B                     l654:
  1460     064B  1003               	clrc
  1461     064C  0CA5               	rrf	___xxtofl@exp,f
  1462     064D                     l1877:
  1463     064D  0825               	movf	___xxtofl@exp,w
  1464     064E  00A0               	movwf	??___xxtofl
  1465     064F  01A1               	clrf	??___xxtofl+1
  1466     0650  01A2               	clrf	??___xxtofl+2
  1467     0651  01A3               	clrf	??___xxtofl+3
  1468     0652  3018               	movlw	24
  1469     0653                     u2565:
  1470     0653  1003               	clrc
  1471     0654  0DA0               	rlf	??___xxtofl,f
  1472     0655  0DA1               	rlf	??___xxtofl+1,f
  1473     0656  0DA2               	rlf	??___xxtofl+2,f
  1474     0657  0DA3               	rlf	??___xxtofl+3,f
  1475     0658                     u2560:
  1476     0658  3EFF               	addlw	-1
  1477     0659  1D03               	skipz
  1478     065A  2E53               	goto	u2565
  1479     065B  0820               	movf	??___xxtofl,w
  1480     065C  04A6               	iorwf	___xxtofl@arg,f
  1481     065D  0821               	movf	??___xxtofl+1,w
  1482     065E  04A7               	iorwf	___xxtofl@arg+1,f
  1483     065F  0822               	movf	??___xxtofl+2,w
  1484     0660  04A8               	iorwf	___xxtofl@arg+2,f
  1485     0661  0823               	movf	??___xxtofl+3,w
  1486     0662  04A9               	iorwf	___xxtofl@arg+3,f
  1487     0663                     l1879:
  1488     0663  0824               	movf	___xxtofl@sign,w
  1489     0664  1903               	btfsc	3,2
  1490     0665  2E67               	goto	u2571
  1491     0666  2E68               	goto	u2570
  1492     0667                     u2571:
  1493     0667  2E6D               	goto	l1885
  1494     0668                     u2570:
  1495     0668                     l1881:
  1496     0668  1FF6               	btfss	___xxtofl@val+3,7
  1497     0669  2E6B               	goto	u2581
  1498     066A  2E6C               	goto	u2580
  1499     066B                     u2581:
  1500     066B  2E6D               	goto	l1885
  1501     066C                     u2580:
  1502     066C                     l1883:
  1503     066C  17A9               	bsf	___xxtofl@arg+3,7
  1504     066D                     l1885:
  1505     066D  0829               	movf	___xxtofl@arg+3,w
  1506     066E  00F6               	movwf	?___xxtofl+3
  1507     066F  0828               	movf	___xxtofl@arg+2,w
  1508     0670  00F5               	movwf	?___xxtofl+2
  1509     0671  0827               	movf	___xxtofl@arg+1,w
  1510     0672  00F4               	movwf	?___xxtofl+1
  1511     0673  0826               	movf	___xxtofl@arg,w
  1512     0674  00F3               	movwf	?___xxtofl
  1513     0675                     l642:
  1514     0675  0008               	return
  1515     0676                     __end_of___xxtofl:
  1516                           
  1517                           	psect	text6
  1518     0706                     __ptext6:	
  1519 ;; *************** function ___fltol *****************
  1520 ;; Defined at:
  1521 ;;		line 43 in file "C:\Program Files\Microchip\xc8\v2.40\pic\sources\c90\common\fltol.c"
  1522 ;; Parameters:    Size  Location     Type
  1523 ;;  f1              4   56[BANK0 ] unsigned char 
  1524 ;; Auto vars:     Size  Location     Type
  1525 ;;  exp1            1    8[COMMON] unsigned char 
  1526 ;;  sign1           1    7[COMMON] unsigned char 
  1527 ;; Return value:  Size  Location     Type
  1528 ;;                  4   56[BANK0 ] long 
  1529 ;; Registers used:
  1530 ;;		wreg, status,2, status,0
  1531 ;; Tracked objects:
  1532 ;;		On entry : 0/0
  1533 ;;		On exit  : 0/0
  1534 ;;		Unchanged: 0/0
  1535 ;; Data sizes:     COMMON   BANK0   BANK1   BANK3   BANK2
  1536 ;;      Params:         0       4       0       0       0
  1537 ;;      Locals:         2       0       0       0       0
  1538 ;;      Temps:          0       4       0       0       0
  1539 ;;      Totals:         2       8       0       0       0
  1540 ;;Total ram usage:       10 bytes
  1541 ;; Hardware stack levels used: 1
  1542 ;; Hardware stack levels required when called: 1
  1543 ;; This function calls:
  1544 ;;		Nothing
  1545 ;; This function is called by:
  1546 ;;		_conversion
  1547 ;; This function uses a non-reentrant model
  1548 ;;
  1549                           
  1550     0706                     ___fltol:	
  1551                           ;psect for function ___fltol
  1552                           
  1553     0706                     l1809:	
  1554                           ;incstack = 0
  1555                           ; Regs used in ___fltol: [wreg+status,2+status,0]
  1556                           
  1557     0706  1003               	clrc
  1558     0707  1283               	bcf	3,5	;RP0=0, select bank0
  1559     0708  1303               	bcf	3,6	;RP1=0, select bank0
  1560     0709  0D5A               	rlf	___fltol@f1+2,w
  1561     070A  0D5B               	rlf	___fltol@f1+3,w
  1562     070B  00F8               	movwf	___fltol@exp1
  1563     070C  0878               	movf	___fltol@exp1,w
  1564     070D  1D03               	btfss	3,2
  1565     070E  2F10               	goto	u2351
  1566     070F  2F11               	goto	u2350
  1567     0710                     u2351:
  1568     0710  2F1A               	goto	l1815
  1569     0711                     u2350:
  1570     0711                     l1811:
  1571     0711  3000               	movlw	0
  1572     0712  00DB               	movwf	?___fltol+3
  1573     0713  3000               	movlw	0
  1574     0714  00DA               	movwf	?___fltol+2
  1575     0715  3000               	movlw	0
  1576     0716  00D9               	movwf	?___fltol+1
  1577     0717  3000               	movlw	0
  1578     0718  00D8               	movwf	?___fltol
  1579     0719  2F7D               	goto	l393
  1580     071A                     l1815:
  1581     071A  0858               	movf	___fltol@f1,w
  1582     071B  00DC               	movwf	??___fltol
  1583     071C  0859               	movf	___fltol@f1+1,w
  1584     071D  00DD               	movwf	??___fltol+1
  1585     071E  085A               	movf	___fltol@f1+2,w
  1586     071F  00DE               	movwf	??___fltol+2
  1587     0720  085B               	movf	___fltol@f1+3,w
  1588     0721  00DF               	movwf	??___fltol+3
  1589     0722  301F               	movlw	31
  1590     0723                     u2365:
  1591     0723  1003               	clrc
  1592     0724  0CDF               	rrf	??___fltol+3,f
  1593     0725  0CDE               	rrf	??___fltol+2,f
  1594     0726  0CDD               	rrf	??___fltol+1,f
  1595     0727  0CDC               	rrf	??___fltol,f
  1596     0728                     u2360:
  1597     0728  3EFF               	addlw	-1
  1598     0729  1D03               	skipz
  1599     072A  2F23               	goto	u2365
  1600     072B  085C               	movf	??___fltol,w
  1601     072C  00F7               	movwf	___fltol@sign1
  1602     072D                     l1817:
  1603     072D  17DA               	bsf	___fltol@f1+2,7
  1604     072E                     l1819:
  1605     072E  30FF               	movlw	255
  1606     072F  05D8               	andwf	___fltol@f1,f
  1607     0730  30FF               	movlw	255
  1608     0731  05D9               	andwf	___fltol@f1+1,f
  1609     0732  30FF               	movlw	255
  1610     0733  05DA               	andwf	___fltol@f1+2,f
  1611     0734  3000               	movlw	0
  1612     0735  05DB               	andwf	___fltol@f1+3,f
  1613     0736                     l1821:
  1614     0736  3096               	movlw	150
  1615     0737  02F8               	subwf	___fltol@exp1,f
  1616     0738                     l1823:
  1617     0738  1FF8               	btfss	___fltol@exp1,7
  1618     0739  2F3B               	goto	u2371
  1619     073A  2F3C               	goto	u2370
  1620     073B                     u2371:
  1621     073B  2F56               	goto	l1833
  1622     073C                     u2370:
  1623     073C                     l1825:
  1624     073C  0878               	movf	___fltol@exp1,w
  1625     073D  3A80               	xorlw	128
  1626     073E  3E97               	addlw	151
  1627     073F  1803               	skipnc
  1628     0740  2F42               	goto	u2381
  1629     0741  2F43               	goto	u2380
  1630     0742                     u2381:
  1631     0742  2F44               	goto	l1831
  1632     0743                     u2380:
  1633     0743  2F11               	goto	l1811
  1634     0744                     l1831:
  1635     0744  3001               	movlw	1
  1636     0745                     u2395:
  1637     0745  1003               	clrc
  1638     0746  0CDB               	rrf	___fltol@f1+3,f
  1639     0747  0CDA               	rrf	___fltol@f1+2,f
  1640     0748  0CD9               	rrf	___fltol@f1+1,f
  1641     0749  0CD8               	rrf	___fltol@f1,f
  1642     074A  3EFF               	addlw	-1
  1643     074B  1D03               	skipz
  1644     074C  2F45               	goto	u2395
  1645     074D  3001               	movlw	1
  1646     074E  00DC               	movwf	??___fltol
  1647     074F  085C               	movf	??___fltol,w
  1648     0750  07F8               	addwf	___fltol@exp1,f
  1649     0751  1D03               	btfss	3,2
  1650     0752  2F54               	goto	u2401
  1651     0753  2F55               	goto	u2400
  1652     0754                     u2401:
  1653     0754  2F44               	goto	l1831
  1654     0755                     u2400:
  1655     0755  2F6D               	goto	l1841
  1656     0756                     l1833:
  1657     0756  3020               	movlw	32
  1658     0757  0278               	subwf	___fltol@exp1,w
  1659     0758  1C03               	skipc
  1660     0759  2F5B               	goto	u2411
  1661     075A  2F5C               	goto	u2410
  1662     075B                     u2411:
  1663     075B  2F68               	goto	l400
  1664     075C                     u2410:
  1665     075C  2F11               	goto	l1811
  1666     075D                     l1839:
  1667     075D  3001               	movlw	1
  1668     075E  00DC               	movwf	??___fltol
  1669     075F                     u2425:
  1670     075F  1003               	clrc
  1671     0760  0DD8               	rlf	___fltol@f1,f
  1672     0761  0DD9               	rlf	___fltol@f1+1,f
  1673     0762  0DDA               	rlf	___fltol@f1+2,f
  1674     0763  0DDB               	rlf	___fltol@f1+3,f
  1675     0764  0BDC               	decfsz	??___fltol,f
  1676     0765  2F5F               	goto	u2425
  1677     0766  3001               	movlw	1
  1678     0767  02F8               	subwf	___fltol@exp1,f
  1679     0768                     l400:
  1680     0768  0878               	movf	___fltol@exp1,w
  1681     0769  1D03               	btfss	3,2
  1682     076A  2F6C               	goto	u2431
  1683     076B  2F6D               	goto	u2430
  1684     076C                     u2431:
  1685     076C  2F5D               	goto	l1839
  1686     076D                     u2430:
  1687     076D                     l1841:
  1688     076D  0877               	movf	___fltol@sign1,w
  1689     076E  1903               	btfsc	3,2
  1690     076F  2F71               	goto	u2441
  1691     0770  2F72               	goto	u2440
  1692     0771                     u2441:
  1693     0771  2F7D               	goto	l403
  1694     0772                     u2440:
  1695     0772                     l1843:
  1696     0772  09D8               	comf	___fltol@f1,f
  1697     0773  09D9               	comf	___fltol@f1+1,f
  1698     0774  09DA               	comf	___fltol@f1+2,f
  1699     0775  09DB               	comf	___fltol@f1+3,f
  1700     0776  0AD8               	incf	___fltol@f1,f
  1701     0777  1903               	skipnz
  1702     0778  0AD9               	incf	___fltol@f1+1,f
  1703     0779  1903               	skipnz
  1704     077A  0ADA               	incf	___fltol@f1+2,f
  1705     077B  1903               	skipnz
  1706     077C  0ADB               	incf	___fltol@f1+3,f
  1707     077D                     l403:
  1708     077D                     l393:
  1709     077D  0008               	return
  1710     077E                     __end_of___fltol:
  1711                           
  1712                           	psect	text7
  1713     001F                     __ptext7:	
  1714 ;; *************** function ___flmul *****************
  1715 ;; Defined at:
  1716 ;;		line 8 in file "C:\Program Files\Microchip\xc8\v2.40\pic\sources\c90\common\sprcmul.c"
  1717 ;; Parameters:    Size  Location     Type
  1718 ;;  b               4   10[BANK0 ] long 
  1719 ;;  a               4   14[BANK0 ] long 
  1720 ;; Auto vars:     Size  Location     Type
  1721 ;;  prod            4   30[BANK0 ] struct .
  1722 ;;  grs             4   24[BANK0 ] unsigned long 
  1723 ;;  temp            2   34[BANK0 ] struct .
  1724 ;;  bexp            1   29[BANK0 ] unsigned char 
  1725 ;;  aexp            1   28[BANK0 ] unsigned char 
  1726 ;;  sign            1   23[BANK0 ] unsigned char 
  1727 ;; Return value:  Size  Location     Type
  1728 ;;                  4   10[BANK0 ] unsigned char 
  1729 ;; Registers used:
  1730 ;;		wreg, status,2, status,0, btemp+1, pclath, cstack
  1731 ;; Tracked objects:
  1732 ;;		On entry : 0/0
  1733 ;;		On exit  : 0/0
  1734 ;;		Unchanged: 0/0
  1735 ;; Data sizes:     COMMON   BANK0   BANK1   BANK3   BANK2
  1736 ;;      Params:         0       8       0       0       0
  1737 ;;      Locals:         0      13       0       0       0
  1738 ;;      Temps:          0       5       0       0       0
  1739 ;;      Totals:         0      26       0       0       0
  1740 ;;Total ram usage:       26 bytes
  1741 ;; Hardware stack levels used: 1
  1742 ;; Hardware stack levels required when called: 2
  1743 ;; This function calls:
  1744 ;;		__Umul8_16
  1745 ;; This function is called by:
  1746 ;;		_conversion
  1747 ;; This function uses a non-reentrant model
  1748 ;;
  1749                           
  1750     001F                     ___flmul:	
  1751                           ;psect for function ___flmul
  1752                           
  1753     001F                     l1505:	
  1754                           ;incstack = 0
  1755                           ; Regs used in ___flmul: [wreg+status,2+status,0+btemp+1+pclath+cstack]
  1756                           
  1757     001F  1283               	bcf	3,5	;RP0=0, select bank0
  1758     0020  1303               	bcf	3,6	;RP1=0, select bank0
  1759     0021  082D               	movf	___flmul@b+3,w
  1760     0022  3980               	andlw	128
  1761     0023  00B7               	movwf	___flmul@sign
  1762     0024                     l1507:
  1763     0024  082D               	movf	___flmul@b+3,w
  1764     0025  00B2               	movwf	??___flmul
  1765     0026  0732               	addwf	??___flmul,w
  1766     0027  00BD               	movwf	___flmul@bexp
  1767     0028                     l1509:
  1768     0028  1FAC               	btfss	___flmul@b+2,7
  1769     0029  282B               	goto	u1771
  1770     002A  282C               	goto	u1770
  1771     002B                     u1771:
  1772     002B  282D               	goto	l1513
  1773     002C                     u1770:
  1774     002C                     l1511:
  1775     002C  143D               	bsf	___flmul@bexp,0
  1776     002D                     l1513:
  1777     002D  083D               	movf	___flmul@bexp,w
  1778     002E  1903               	btfsc	3,2
  1779     002F  2831               	goto	u1781
  1780     0030  2832               	goto	u1780
  1781     0031                     u1781:
  1782     0031  2841               	goto	l1521
  1783     0032                     u1780:
  1784     0032                     l1515:
  1785     0032  0A3D               	incf	___flmul@bexp,w
  1786     0033  1D03               	btfss	3,2
  1787     0034  2836               	goto	u1791
  1788     0035  2837               	goto	u1790
  1789     0036                     u1791:
  1790     0036  283F               	goto	l1519
  1791     0037                     u1790:
  1792     0037                     l1517:
  1793     0037  3000               	movlw	0
  1794     0038  00AD               	movwf	___flmul@b+3
  1795     0039  3000               	movlw	0
  1796     003A  00AC               	movwf	___flmul@b+2
  1797     003B  3000               	movlw	0
  1798     003C  00AB               	movwf	___flmul@b+1
  1799     003D  3000               	movlw	0
  1800     003E  00AA               	movwf	___flmul@b
  1801     003F                     l1519:
  1802     003F  17AC               	bsf	___flmul@b+2,7
  1803     0040  2849               	goto	l1523
  1804     0041                     l1521:
  1805     0041  3000               	movlw	0
  1806     0042  00AD               	movwf	___flmul@b+3
  1807     0043  3000               	movlw	0
  1808     0044  00AC               	movwf	___flmul@b+2
  1809     0045  3000               	movlw	0
  1810     0046  00AB               	movwf	___flmul@b+1
  1811     0047  3000               	movlw	0
  1812     0048  00AA               	movwf	___flmul@b
  1813     0049                     l1523:
  1814     0049  0831               	movf	___flmul@a+3,w
  1815     004A  3980               	andlw	128
  1816     004B  00B2               	movwf	??___flmul
  1817     004C  0832               	movf	??___flmul,w
  1818     004D  06B7               	xorwf	___flmul@sign,f
  1819     004E                     l1525:
  1820     004E  0831               	movf	___flmul@a+3,w
  1821     004F  00B2               	movwf	??___flmul
  1822     0050  0732               	addwf	??___flmul,w
  1823     0051  00BC               	movwf	___flmul@aexp
  1824     0052                     l1527:
  1825     0052  1FB0               	btfss	___flmul@a+2,7
  1826     0053  2855               	goto	u1801
  1827     0054  2856               	goto	u1800
  1828     0055                     u1801:
  1829     0055  2857               	goto	l1531
  1830     0056                     u1800:
  1831     0056                     l1529:
  1832     0056  143C               	bsf	___flmul@aexp,0
  1833     0057                     l1531:
  1834     0057  083C               	movf	___flmul@aexp,w
  1835     0058  1903               	btfsc	3,2
  1836     0059  285B               	goto	u1811
  1837     005A  285C               	goto	u1810
  1838     005B                     u1811:
  1839     005B  286B               	goto	l1539
  1840     005C                     u1810:
  1841     005C                     l1533:
  1842     005C  0A3C               	incf	___flmul@aexp,w
  1843     005D  1D03               	btfss	3,2
  1844     005E  2860               	goto	u1821
  1845     005F  2861               	goto	u1820
  1846     0060                     u1821:
  1847     0060  2869               	goto	l1537
  1848     0061                     u1820:
  1849     0061                     l1535:
  1850     0061  3000               	movlw	0
  1851     0062  00B1               	movwf	___flmul@a+3
  1852     0063  3000               	movlw	0
  1853     0064  00B0               	movwf	___flmul@a+2
  1854     0065  3000               	movlw	0
  1855     0066  00AF               	movwf	___flmul@a+1
  1856     0067  3000               	movlw	0
  1857     0068  00AE               	movwf	___flmul@a
  1858     0069                     l1537:
  1859     0069  17B0               	bsf	___flmul@a+2,7
  1860     006A  2873               	goto	l1541
  1861     006B                     l1539:
  1862     006B  3000               	movlw	0
  1863     006C  00B1               	movwf	___flmul@a+3
  1864     006D  3000               	movlw	0
  1865     006E  00B0               	movwf	___flmul@a+2
  1866     006F  3000               	movlw	0
  1867     0070  00AF               	movwf	___flmul@a+1
  1868     0071  3000               	movlw	0
  1869     0072  00AE               	movwf	___flmul@a
  1870     0073                     l1541:
  1871     0073  083C               	movf	___flmul@aexp,w
  1872     0074  1903               	btfsc	3,2
  1873     0075  2877               	goto	u1831
  1874     0076  2878               	goto	u1830
  1875     0077                     u1831:
  1876     0077  287D               	goto	l1545
  1877     0078                     u1830:
  1878     0078                     l1543:
  1879     0078  083D               	movf	___flmul@bexp,w
  1880     0079  1D03               	btfss	3,2
  1881     007A  287C               	goto	u1841
  1882     007B  287D               	goto	u1840
  1883     007C                     u1841:
  1884     007C  2886               	goto	l1549
  1885     007D                     u1840:
  1886     007D                     l1545:
  1887     007D  3000               	movlw	0
  1888     007E  00AD               	movwf	?___flmul+3
  1889     007F  3000               	movlw	0
  1890     0080  00AC               	movwf	?___flmul+2
  1891     0081  3000               	movlw	0
  1892     0082  00AB               	movwf	?___flmul+1
  1893     0083  3000               	movlw	0
  1894     0084  00AA               	movwf	?___flmul
  1895     0085  2B63               	goto	l596
  1896     0086                     l1549:
  1897     0086  082A               	movf	___flmul@b,w
  1898     0087  00F3               	movwf	__Umul8_16@multiplicand
  1899     0088  0830               	movf	___flmul@a+2,w
  1900     0089  120A  158A  277F  120A  118A  	fcall	__Umul8_16
  1901     008E  0874               	movf	?__Umul8_16+1,w
  1902     008F  1283               	bcf	3,5	;RP0=0, select bank0
  1903     0090  1303               	bcf	3,6	;RP1=0, select bank0
  1904     0091  00C3               	movwf	___flmul@temp+1
  1905     0092  0873               	movf	?__Umul8_16,w
  1906     0093  00C2               	movwf	___flmul@temp
  1907     0094                     l1551:
  1908     0094  0842               	movf	___flmul@temp,w
  1909     0095  00B2               	movwf	??___flmul
  1910     0096  01B3               	clrf	??___flmul+1
  1911     0097  01B4               	clrf	??___flmul+2
  1912     0098  01B5               	clrf	??___flmul+3
  1913     0099  0835               	movf	??___flmul+3,w
  1914     009A  00BB               	movwf	___flmul@grs+3
  1915     009B  0834               	movf	??___flmul+2,w
  1916     009C  00BA               	movwf	___flmul@grs+2
  1917     009D  0833               	movf	??___flmul+1,w
  1918     009E  00B9               	movwf	___flmul@grs+1
  1919     009F  0832               	movf	??___flmul,w
  1920     00A0  00B8               	movwf	___flmul@grs
  1921     00A1                     l1553:
  1922     00A1  0843               	movf	___flmul@temp+1,w
  1923     00A2  00B2               	movwf	??___flmul
  1924     00A3  01B3               	clrf	??___flmul+1
  1925     00A4  01B4               	clrf	??___flmul+2
  1926     00A5  01B5               	clrf	??___flmul+3
  1927     00A6  0835               	movf	??___flmul+3,w
  1928     00A7  00C1               	movwf	___flmul@prod+3
  1929     00A8  0834               	movf	??___flmul+2,w
  1930     00A9  00C0               	movwf	___flmul@prod+2
  1931     00AA  0833               	movf	??___flmul+1,w
  1932     00AB  00BF               	movwf	___flmul@prod+1
  1933     00AC  0832               	movf	??___flmul,w
  1934     00AD  00BE               	movwf	___flmul@prod
  1935     00AE  082B               	movf	___flmul@b+1,w
  1936     00AF  00F3               	movwf	__Umul8_16@multiplicand
  1937     00B0  082F               	movf	___flmul@a+1,w
  1938     00B1  120A  158A  277F  120A  118A  	fcall	__Umul8_16
  1939     00B6  0874               	movf	?__Umul8_16+1,w
  1940     00B7  1283               	bcf	3,5	;RP0=0, select bank0
  1941     00B8  1303               	bcf	3,6	;RP1=0, select bank0
  1942     00B9  00C3               	movwf	___flmul@temp+1
  1943     00BA  0873               	movf	?__Umul8_16,w
  1944     00BB  00C2               	movwf	___flmul@temp
  1945     00BC                     l1555:
  1946     00BC  0842               	movf	___flmul@temp,w
  1947     00BD  00B2               	movwf	??___flmul
  1948     00BE  01B3               	clrf	??___flmul+1
  1949     00BF  01B4               	clrf	??___flmul+2
  1950     00C0  01B5               	clrf	??___flmul+3
  1951     00C1  0832               	movf	??___flmul,w
  1952     00C2  07B8               	addwf	___flmul@grs,f
  1953     00C3  0833               	movf	??___flmul+1,w
  1954     00C4  1103               	clrz
  1955     00C5  1803               	skipnc
  1956     00C6  3E01               	addlw	1
  1957     00C7  1903               	skipnz
  1958     00C8  28CA               	goto	u1851
  1959     00C9  07B9               	addwf	___flmul@grs+1,f
  1960     00CA                     u1851:
  1961     00CA  0834               	movf	??___flmul+2,w
  1962     00CB  1103               	clrz
  1963     00CC  1803               	skipnc
  1964     00CD  3E01               	addlw	1
  1965     00CE  1903               	skipnz
  1966     00CF  28D1               	goto	u1852
  1967     00D0  07BA               	addwf	___flmul@grs+2,f
  1968     00D1                     u1852:
  1969     00D1  0835               	movf	??___flmul+3,w
  1970     00D2  1103               	clrz
  1971     00D3  1803               	skipnc
  1972     00D4  3E01               	addlw	1
  1973     00D5  1903               	skipnz
  1974     00D6  28D8               	goto	u1853
  1975     00D7  07BB               	addwf	___flmul@grs+3,f
  1976     00D8                     u1853:
  1977     00D8                     l1557:
  1978     00D8  0843               	movf	___flmul@temp+1,w
  1979     00D9  00B2               	movwf	??___flmul
  1980     00DA  01B3               	clrf	??___flmul+1
  1981     00DB  01B4               	clrf	??___flmul+2
  1982     00DC  01B5               	clrf	??___flmul+3
  1983     00DD  0832               	movf	??___flmul,w
  1984     00DE  07BE               	addwf	___flmul@prod,f
  1985     00DF  0833               	movf	??___flmul+1,w
  1986     00E0  1103               	clrz
  1987     00E1  1803               	skipnc
  1988     00E2  3E01               	addlw	1
  1989     00E3  1903               	skipnz
  1990     00E4  28E6               	goto	u1861
  1991     00E5  07BF               	addwf	___flmul@prod+1,f
  1992     00E6                     u1861:
  1993     00E6  0834               	movf	??___flmul+2,w
  1994     00E7  1103               	clrz
  1995     00E8  1803               	skipnc
  1996     00E9  3E01               	addlw	1
  1997     00EA  1903               	skipnz
  1998     00EB  28ED               	goto	u1862
  1999     00EC  07C0               	addwf	___flmul@prod+2,f
  2000     00ED                     u1862:
  2001     00ED  0835               	movf	??___flmul+3,w
  2002     00EE  1103               	clrz
  2003     00EF  1803               	skipnc
  2004     00F0  3E01               	addlw	1
  2005     00F1  1903               	skipnz
  2006     00F2  28F4               	goto	u1863
  2007     00F3  07C1               	addwf	___flmul@prod+3,f
  2008     00F4                     u1863:
  2009     00F4  082C               	movf	___flmul@b+2,w
  2010     00F5  00F3               	movwf	__Umul8_16@multiplicand
  2011     00F6  082E               	movf	___flmul@a,w
  2012     00F7  120A  158A  277F  120A  118A  	fcall	__Umul8_16
  2013     00FC  0874               	movf	?__Umul8_16+1,w
  2014     00FD  1283               	bcf	3,5	;RP0=0, select bank0
  2015     00FE  1303               	bcf	3,6	;RP1=0, select bank0
  2016     00FF  00C3               	movwf	___flmul@temp+1
  2017     0100  0873               	movf	?__Umul8_16,w
  2018     0101  00C2               	movwf	___flmul@temp
  2019     0102                     l1559:
  2020     0102  0842               	movf	___flmul@temp,w
  2021     0103  00B2               	movwf	??___flmul
  2022     0104  01B3               	clrf	??___flmul+1
  2023     0105  01B4               	clrf	??___flmul+2
  2024     0106  01B5               	clrf	??___flmul+3
  2025     0107  0832               	movf	??___flmul,w
  2026     0108  07B8               	addwf	___flmul@grs,f
  2027     0109  0833               	movf	??___flmul+1,w
  2028     010A  1103               	clrz
  2029     010B  1803               	skipnc
  2030     010C  3E01               	addlw	1
  2031     010D  1903               	skipnz
  2032     010E  2910               	goto	u1871
  2033     010F  07B9               	addwf	___flmul@grs+1,f
  2034     0110                     u1871:
  2035     0110  0834               	movf	??___flmul+2,w
  2036     0111  1103               	clrz
  2037     0112  1803               	skipnc
  2038     0113  3E01               	addlw	1
  2039     0114  1903               	skipnz
  2040     0115  2917               	goto	u1872
  2041     0116  07BA               	addwf	___flmul@grs+2,f
  2042     0117                     u1872:
  2043     0117  0835               	movf	??___flmul+3,w
  2044     0118  1103               	clrz
  2045     0119  1803               	skipnc
  2046     011A  3E01               	addlw	1
  2047     011B  1903               	skipnz
  2048     011C  291E               	goto	u1873
  2049     011D  07BB               	addwf	___flmul@grs+3,f
  2050     011E                     u1873:
  2051     011E                     l1561:
  2052     011E  0843               	movf	___flmul@temp+1,w
  2053     011F  00B2               	movwf	??___flmul
  2054     0120  01B3               	clrf	??___flmul+1
  2055     0121  01B4               	clrf	??___flmul+2
  2056     0122  01B5               	clrf	??___flmul+3
  2057     0123  0832               	movf	??___flmul,w
  2058     0124  07BE               	addwf	___flmul@prod,f
  2059     0125  0833               	movf	??___flmul+1,w
  2060     0126  1103               	clrz
  2061     0127  1803               	skipnc
  2062     0128  3E01               	addlw	1
  2063     0129  1903               	skipnz
  2064     012A  292C               	goto	u1881
  2065     012B  07BF               	addwf	___flmul@prod+1,f
  2066     012C                     u1881:
  2067     012C  0834               	movf	??___flmul+2,w
  2068     012D  1103               	clrz
  2069     012E  1803               	skipnc
  2070     012F  3E01               	addlw	1
  2071     0130  1903               	skipnz
  2072     0131  2933               	goto	u1882
  2073     0132  07C0               	addwf	___flmul@prod+2,f
  2074     0133                     u1882:
  2075     0133  0835               	movf	??___flmul+3,w
  2076     0134  1103               	clrz
  2077     0135  1803               	skipnc
  2078     0136  3E01               	addlw	1
  2079     0137  1903               	skipnz
  2080     0138  293A               	goto	u1883
  2081     0139  07C1               	addwf	___flmul@prod+3,f
  2082     013A                     u1883:
  2083     013A                     l1563:
  2084     013A  3008               	movlw	8
  2085     013B  00B2               	movwf	??___flmul
  2086     013C                     u1895:
  2087     013C  1003               	clrc
  2088     013D  0DB8               	rlf	___flmul@grs,f
  2089     013E  0DB9               	rlf	___flmul@grs+1,f
  2090     013F  0DBA               	rlf	___flmul@grs+2,f
  2091     0140  0DBB               	rlf	___flmul@grs+3,f
  2092     0141  0BB2               	decfsz	??___flmul,f
  2093     0142  293C               	goto	u1895
  2094     0143                     l1565:
  2095     0143  082B               	movf	___flmul@b+1,w
  2096     0144  00F3               	movwf	__Umul8_16@multiplicand
  2097     0145  082E               	movf	___flmul@a,w
  2098     0146  120A  158A  277F  120A  118A  	fcall	__Umul8_16
  2099     014B  0874               	movf	?__Umul8_16+1,w
  2100     014C  1283               	bcf	3,5	;RP0=0, select bank0
  2101     014D  1303               	bcf	3,6	;RP1=0, select bank0
  2102     014E  00C3               	movwf	___flmul@temp+1
  2103     014F  0873               	movf	?__Umul8_16,w
  2104     0150  00C2               	movwf	___flmul@temp
  2105     0151                     l1567:
  2106     0151  0842               	movf	___flmul@temp,w
  2107     0152  00B2               	movwf	??___flmul
  2108     0153  0843               	movf	___flmul@temp+1,w
  2109     0154  00B3               	movwf	??___flmul+1
  2110     0155  01B4               	clrf	??___flmul+2
  2111     0156  01B5               	clrf	??___flmul+3
  2112     0157  0832               	movf	??___flmul,w
  2113     0158  07B8               	addwf	___flmul@grs,f
  2114     0159  0833               	movf	??___flmul+1,w
  2115     015A  1103               	clrz
  2116     015B  1803               	skipnc
  2117     015C  3E01               	addlw	1
  2118     015D  1903               	skipnz
  2119     015E  2960               	goto	u1901
  2120     015F  07B9               	addwf	___flmul@grs+1,f
  2121     0160                     u1901:
  2122     0160  0834               	movf	??___flmul+2,w
  2123     0161  1103               	clrz
  2124     0162  1803               	skipnc
  2125     0163  3E01               	addlw	1
  2126     0164  1903               	skipnz
  2127     0165  2967               	goto	u1902
  2128     0166  07BA               	addwf	___flmul@grs+2,f
  2129     0167                     u1902:
  2130     0167  0835               	movf	??___flmul+3,w
  2131     0168  1103               	clrz
  2132     0169  1803               	skipnc
  2133     016A  3E01               	addlw	1
  2134     016B  1903               	skipnz
  2135     016C  296E               	goto	u1903
  2136     016D  07BB               	addwf	___flmul@grs+3,f
  2137     016E                     u1903:
  2138     016E                     l1569:
  2139     016E  082A               	movf	___flmul@b,w
  2140     016F  00F3               	movwf	__Umul8_16@multiplicand
  2141     0170  082F               	movf	___flmul@a+1,w
  2142     0171  120A  158A  277F  120A  118A  	fcall	__Umul8_16
  2143     0176  0874               	movf	?__Umul8_16+1,w
  2144     0177  1283               	bcf	3,5	;RP0=0, select bank0
  2145     0178  1303               	bcf	3,6	;RP1=0, select bank0
  2146     0179  00C3               	movwf	___flmul@temp+1
  2147     017A  0873               	movf	?__Umul8_16,w
  2148     017B  00C2               	movwf	___flmul@temp
  2149     017C                     l1571:
  2150     017C  0842               	movf	___flmul@temp,w
  2151     017D  00B2               	movwf	??___flmul
  2152     017E  0843               	movf	___flmul@temp+1,w
  2153     017F  00B3               	movwf	??___flmul+1
  2154     0180  01B4               	clrf	??___flmul+2
  2155     0181  01B5               	clrf	??___flmul+3
  2156     0182  0832               	movf	??___flmul,w
  2157     0183  07B8               	addwf	___flmul@grs,f
  2158     0184  0833               	movf	??___flmul+1,w
  2159     0185  1103               	clrz
  2160     0186  1803               	skipnc
  2161     0187  3E01               	addlw	1
  2162     0188  1903               	skipnz
  2163     0189  298B               	goto	u1911
  2164     018A  07B9               	addwf	___flmul@grs+1,f
  2165     018B                     u1911:
  2166     018B  0834               	movf	??___flmul+2,w
  2167     018C  1103               	clrz
  2168     018D  1803               	skipnc
  2169     018E  3E01               	addlw	1
  2170     018F  1903               	skipnz
  2171     0190  2992               	goto	u1912
  2172     0191  07BA               	addwf	___flmul@grs+2,f
  2173     0192                     u1912:
  2174     0192  0835               	movf	??___flmul+3,w
  2175     0193  1103               	clrz
  2176     0194  1803               	skipnc
  2177     0195  3E01               	addlw	1
  2178     0196  1903               	skipnz
  2179     0197  2999               	goto	u1913
  2180     0198  07BB               	addwf	___flmul@grs+3,f
  2181     0199                     u1913:
  2182     0199                     l1573:
  2183     0199  3008               	movlw	8
  2184     019A  00B2               	movwf	??___flmul
  2185     019B                     u1925:
  2186     019B  1003               	clrc
  2187     019C  0DB8               	rlf	___flmul@grs,f
  2188     019D  0DB9               	rlf	___flmul@grs+1,f
  2189     019E  0DBA               	rlf	___flmul@grs+2,f
  2190     019F  0DBB               	rlf	___flmul@grs+3,f
  2191     01A0  0BB2               	decfsz	??___flmul,f
  2192     01A1  299B               	goto	u1925
  2193     01A2  082A               	movf	___flmul@b,w
  2194     01A3  00F3               	movwf	__Umul8_16@multiplicand
  2195     01A4  082E               	movf	___flmul@a,w
  2196     01A5  120A  158A  277F  120A  118A  	fcall	__Umul8_16
  2197     01AA  0874               	movf	?__Umul8_16+1,w
  2198     01AB  1283               	bcf	3,5	;RP0=0, select bank0
  2199     01AC  1303               	bcf	3,6	;RP1=0, select bank0
  2200     01AD  00C3               	movwf	___flmul@temp+1
  2201     01AE  0873               	movf	?__Umul8_16,w
  2202     01AF  00C2               	movwf	___flmul@temp
  2203     01B0                     l1575:
  2204     01B0  0842               	movf	___flmul@temp,w
  2205     01B1  00B2               	movwf	??___flmul
  2206     01B2  0843               	movf	___flmul@temp+1,w
  2207     01B3  00B3               	movwf	??___flmul+1
  2208     01B4  01B4               	clrf	??___flmul+2
  2209     01B5  01B5               	clrf	??___flmul+3
  2210     01B6  0832               	movf	??___flmul,w
  2211     01B7  07B8               	addwf	___flmul@grs,f
  2212     01B8  0833               	movf	??___flmul+1,w
  2213     01B9  1103               	clrz
  2214     01BA  1803               	skipnc
  2215     01BB  3E01               	addlw	1
  2216     01BC  1903               	skipnz
  2217     01BD  29BF               	goto	u1931
  2218     01BE  07B9               	addwf	___flmul@grs+1,f
  2219     01BF                     u1931:
  2220     01BF  0834               	movf	??___flmul+2,w
  2221     01C0  1103               	clrz
  2222     01C1  1803               	skipnc
  2223     01C2  3E01               	addlw	1
  2224     01C3  1903               	skipnz
  2225     01C4  29C6               	goto	u1932
  2226     01C5  07BA               	addwf	___flmul@grs+2,f
  2227     01C6                     u1932:
  2228     01C6  0835               	movf	??___flmul+3,w
  2229     01C7  1103               	clrz
  2230     01C8  1803               	skipnc
  2231     01C9  3E01               	addlw	1
  2232     01CA  1903               	skipnz
  2233     01CB  29CD               	goto	u1933
  2234     01CC  07BB               	addwf	___flmul@grs+3,f
  2235     01CD                     u1933:
  2236     01CD                     l1577:
  2237     01CD  082B               	movf	___flmul@b+1,w
  2238     01CE  00F3               	movwf	__Umul8_16@multiplicand
  2239     01CF  0830               	movf	___flmul@a+2,w
  2240     01D0  120A  158A  277F  120A  118A  	fcall	__Umul8_16
  2241     01D5  0874               	movf	?__Umul8_16+1,w
  2242     01D6  1283               	bcf	3,5	;RP0=0, select bank0
  2243     01D7  1303               	bcf	3,6	;RP1=0, select bank0
  2244     01D8  00C3               	movwf	___flmul@temp+1
  2245     01D9  0873               	movf	?__Umul8_16,w
  2246     01DA  00C2               	movwf	___flmul@temp
  2247     01DB  0842               	movf	___flmul@temp,w
  2248     01DC  00B2               	movwf	??___flmul
  2249     01DD  0843               	movf	___flmul@temp+1,w
  2250     01DE  00B3               	movwf	??___flmul+1
  2251     01DF  01B4               	clrf	??___flmul+2
  2252     01E0  01B5               	clrf	??___flmul+3
  2253     01E1  0832               	movf	??___flmul,w
  2254     01E2  07BE               	addwf	___flmul@prod,f
  2255     01E3  0833               	movf	??___flmul+1,w
  2256     01E4  1103               	clrz
  2257     01E5  1803               	skipnc
  2258     01E6  3E01               	addlw	1
  2259     01E7  1903               	skipnz
  2260     01E8  29EA               	goto	u1941
  2261     01E9  07BF               	addwf	___flmul@prod+1,f
  2262     01EA                     u1941:
  2263     01EA  0834               	movf	??___flmul+2,w
  2264     01EB  1103               	clrz
  2265     01EC  1803               	skipnc
  2266     01ED  3E01               	addlw	1
  2267     01EE  1903               	skipnz
  2268     01EF  29F1               	goto	u1942
  2269     01F0  07C0               	addwf	___flmul@prod+2,f
  2270     01F1                     u1942:
  2271     01F1  0835               	movf	??___flmul+3,w
  2272     01F2  1103               	clrz
  2273     01F3  1803               	skipnc
  2274     01F4  3E01               	addlw	1
  2275     01F5  1903               	skipnz
  2276     01F6  29F8               	goto	u1943
  2277     01F7  07C1               	addwf	___flmul@prod+3,f
  2278     01F8                     u1943:
  2279     01F8                     l1579:
  2280     01F8  082C               	movf	___flmul@b+2,w
  2281     01F9  00F3               	movwf	__Umul8_16@multiplicand
  2282     01FA  082F               	movf	___flmul@a+1,w
  2283     01FB  120A  158A  277F  120A  118A  	fcall	__Umul8_16
  2284     0200  0874               	movf	?__Umul8_16+1,w
  2285     0201  1283               	bcf	3,5	;RP0=0, select bank0
  2286     0202  1303               	bcf	3,6	;RP1=0, select bank0
  2287     0203  00C3               	movwf	___flmul@temp+1
  2288     0204  0873               	movf	?__Umul8_16,w
  2289     0205  00C2               	movwf	___flmul@temp
  2290     0206                     l1581:
  2291     0206  0842               	movf	___flmul@temp,w
  2292     0207  00B2               	movwf	??___flmul
  2293     0208  0843               	movf	___flmul@temp+1,w
  2294     0209  00B3               	movwf	??___flmul+1
  2295     020A  01B4               	clrf	??___flmul+2
  2296     020B  01B5               	clrf	??___flmul+3
  2297     020C  0832               	movf	??___flmul,w
  2298     020D  07BE               	addwf	___flmul@prod,f
  2299     020E  0833               	movf	??___flmul+1,w
  2300     020F  1103               	clrz
  2301     0210  1803               	skipnc
  2302     0211  3E01               	addlw	1
  2303     0212  1903               	skipnz
  2304     0213  2A15               	goto	u1951
  2305     0214  07BF               	addwf	___flmul@prod+1,f
  2306     0215                     u1951:
  2307     0215  0834               	movf	??___flmul+2,w
  2308     0216  1103               	clrz
  2309     0217  1803               	skipnc
  2310     0218  3E01               	addlw	1
  2311     0219  1903               	skipnz
  2312     021A  2A1C               	goto	u1952
  2313     021B  07C0               	addwf	___flmul@prod+2,f
  2314     021C                     u1952:
  2315     021C  0835               	movf	??___flmul+3,w
  2316     021D  1103               	clrz
  2317     021E  1803               	skipnc
  2318     021F  3E01               	addlw	1
  2319     0220  1903               	skipnz
  2320     0221  2A23               	goto	u1953
  2321     0222  07C1               	addwf	___flmul@prod+3,f
  2322     0223                     u1953:
  2323     0223  082C               	movf	___flmul@b+2,w
  2324     0224  00F3               	movwf	__Umul8_16@multiplicand
  2325     0225  0830               	movf	___flmul@a+2,w
  2326     0226  120A  158A  277F  120A  118A  	fcall	__Umul8_16
  2327     022B  0874               	movf	?__Umul8_16+1,w
  2328     022C  1283               	bcf	3,5	;RP0=0, select bank0
  2329     022D  1303               	bcf	3,6	;RP1=0, select bank0
  2330     022E  00C3               	movwf	___flmul@temp+1
  2331     022F  0873               	movf	?__Umul8_16,w
  2332     0230  00C2               	movwf	___flmul@temp
  2333     0231                     l1583:
  2334     0231  0842               	movf	___flmul@temp,w
  2335     0232  00B2               	movwf	??___flmul
  2336     0233  0843               	movf	___flmul@temp+1,w
  2337     0234  00B3               	movwf	??___flmul+1
  2338     0235  01B4               	clrf	??___flmul+2
  2339     0236  01B5               	clrf	??___flmul+3
  2340     0237  3008               	movlw	8
  2341     0238                     u1965:
  2342     0238  1003               	clrc
  2343     0239  0DB2               	rlf	??___flmul,f
  2344     023A  0DB3               	rlf	??___flmul+1,f
  2345     023B  0DB4               	rlf	??___flmul+2,f
  2346     023C  0DB5               	rlf	??___flmul+3,f
  2347     023D                     u1960:
  2348     023D  3EFF               	addlw	-1
  2349     023E  1D03               	skipz
  2350     023F  2A38               	goto	u1965
  2351     0240  0832               	movf	??___flmul,w
  2352     0241  07BE               	addwf	___flmul@prod,f
  2353     0242  0833               	movf	??___flmul+1,w
  2354     0243  1103               	clrz
  2355     0244  1803               	skipnc
  2356     0245  3E01               	addlw	1
  2357     0246  1903               	skipnz
  2358     0247  2A49               	goto	u1971
  2359     0248  07BF               	addwf	___flmul@prod+1,f
  2360     0249                     u1971:
  2361     0249  0834               	movf	??___flmul+2,w
  2362     024A  1103               	clrz
  2363     024B  1803               	skipnc
  2364     024C  3E01               	addlw	1
  2365     024D  1903               	skipnz
  2366     024E  2A50               	goto	u1972
  2367     024F  07C0               	addwf	___flmul@prod+2,f
  2368     0250                     u1972:
  2369     0250  0835               	movf	??___flmul+3,w
  2370     0251  1103               	clrz
  2371     0252  1803               	skipnc
  2372     0253  3E01               	addlw	1
  2373     0254  1903               	skipnz
  2374     0255  2A57               	goto	u1973
  2375     0256  07C1               	addwf	___flmul@prod+3,f
  2376     0257                     u1973:
  2377     0257                     l1585:
  2378     0257  0838               	movf	___flmul@grs,w
  2379     0258  00B2               	movwf	??___flmul
  2380     0259  0839               	movf	___flmul@grs+1,w
  2381     025A  00B3               	movwf	??___flmul+1
  2382     025B  083A               	movf	___flmul@grs+2,w
  2383     025C  00B4               	movwf	??___flmul+2
  2384     025D  083B               	movf	___flmul@grs+3,w
  2385     025E  00B5               	movwf	??___flmul+3
  2386     025F  3018               	movlw	24
  2387     0260                     u1985:
  2388     0260  1003               	clrc
  2389     0261  0CB5               	rrf	??___flmul+3,f
  2390     0262  0CB4               	rrf	??___flmul+2,f
  2391     0263  0CB3               	rrf	??___flmul+1,f
  2392     0264  0CB2               	rrf	??___flmul,f
  2393     0265                     u1980:
  2394     0265  3EFF               	addlw	-1
  2395     0266  1D03               	skipz
  2396     0267  2A60               	goto	u1985
  2397     0268  0832               	movf	??___flmul,w
  2398     0269  07BE               	addwf	___flmul@prod,f
  2399     026A  0833               	movf	??___flmul+1,w
  2400     026B  1103               	clrz
  2401     026C  1803               	skipnc
  2402     026D  3E01               	addlw	1
  2403     026E  1903               	skipnz
  2404     026F  2A71               	goto	u1991
  2405     0270  07BF               	addwf	___flmul@prod+1,f
  2406     0271                     u1991:
  2407     0271  0834               	movf	??___flmul+2,w
  2408     0272  1103               	clrz
  2409     0273  1803               	skipnc
  2410     0274  3E01               	addlw	1
  2411     0275  1903               	skipnz
  2412     0276  2A78               	goto	u1992
  2413     0277  07C0               	addwf	___flmul@prod+2,f
  2414     0278                     u1992:
  2415     0278  0835               	movf	??___flmul+3,w
  2416     0279  1103               	clrz
  2417     027A  1803               	skipnc
  2418     027B  3E01               	addlw	1
  2419     027C  1903               	skipnz
  2420     027D  2A7F               	goto	u1993
  2421     027E  07C1               	addwf	___flmul@prod+3,f
  2422     027F                     u1993:
  2423     027F                     l1587:
  2424     027F  3008               	movlw	8
  2425     0280  00B2               	movwf	??___flmul
  2426     0281                     u2005:
  2427     0281  1003               	clrc
  2428     0282  0DB8               	rlf	___flmul@grs,f
  2429     0283  0DB9               	rlf	___flmul@grs+1,f
  2430     0284  0DBA               	rlf	___flmul@grs+2,f
  2431     0285  0DBB               	rlf	___flmul@grs+3,f
  2432     0286  0BB2               	decfsz	??___flmul,f
  2433     0287  2A81               	goto	u2005
  2434     0288                     l1589:
  2435     0288  083D               	movf	___flmul@bexp,w
  2436     0289  073C               	addwf	___flmul@aexp,w
  2437     028A  00B2               	movwf	??___flmul
  2438     028B  01B3               	clrf	??___flmul+1
  2439     028C  0DB3               	rlf	??___flmul+1,f
  2440     028D  0832               	movf	??___flmul,w
  2441     028E  3E82               	addlw	130
  2442     028F  00C2               	movwf	___flmul@temp
  2443     0290  0833               	movf	??___flmul+1,w
  2444     0291  1803               	skipnc
  2445     0292  3E01               	addlw	1
  2446     0293  3EFF               	addlw	255
  2447     0294  00C3               	movwf	___flmul@temp+1
  2448     0295  2AB3               	goto	l1601
  2449     0296                     l1591:
  2450     0296  3001               	movlw	1
  2451     0297  00B2               	movwf	??___flmul
  2452     0298                     u2015:
  2453     0298  1003               	clrc
  2454     0299  0DBE               	rlf	___flmul@prod,f
  2455     029A  0DBF               	rlf	___flmul@prod+1,f
  2456     029B  0DC0               	rlf	___flmul@prod+2,f
  2457     029C  0DC1               	rlf	___flmul@prod+3,f
  2458     029D  0BB2               	decfsz	??___flmul,f
  2459     029E  2A98               	goto	u2015
  2460     029F                     l1593:
  2461     029F  1FBB               	btfss	___flmul@grs+3,7
  2462     02A0  2AA2               	goto	u2021
  2463     02A1  2AA3               	goto	u2020
  2464     02A2                     u2021:
  2465     02A2  2AA4               	goto	l1597
  2466     02A3                     u2020:
  2467     02A3                     l1595:
  2468     02A3  143E               	bsf	___flmul@prod,0
  2469     02A4                     l1597:
  2470     02A4  3001               	movlw	1
  2471     02A5  00B2               	movwf	??___flmul
  2472     02A6                     u2035:
  2473     02A6  1003               	clrc
  2474     02A7  0DB8               	rlf	___flmul@grs,f
  2475     02A8  0DB9               	rlf	___flmul@grs+1,f
  2476     02A9  0DBA               	rlf	___flmul@grs+2,f
  2477     02AA  0DBB               	rlf	___flmul@grs+3,f
  2478     02AB  0BB2               	decfsz	??___flmul,f
  2479     02AC  2AA6               	goto	u2035
  2480     02AD                     l1599:
  2481     02AD  30FF               	movlw	255
  2482     02AE  07C2               	addwf	___flmul@temp,f
  2483     02AF  1803               	skipnc
  2484     02B0  0AC3               	incf	___flmul@temp+1,f
  2485     02B1  30FF               	movlw	255
  2486     02B2  07C3               	addwf	___flmul@temp+1,f
  2487     02B3                     l1601:
  2488     02B3  1FC0               	btfss	___flmul@prod+2,7
  2489     02B4  2AB6               	goto	u2041
  2490     02B5  2AB7               	goto	u2040
  2491     02B6                     u2041:
  2492     02B6  2A96               	goto	l1591
  2493     02B7                     u2040:
  2494     02B7                     l1603:
  2495     02B7  01BC               	clrf	___flmul@aexp
  2496     02B8                     l1605:
  2497     02B8  1FBB               	btfss	___flmul@grs+3,7
  2498     02B9  2ABB               	goto	u2051
  2499     02BA  2ABC               	goto	u2050
  2500     02BB                     u2051:
  2501     02BB  2AD8               	goto	l1613
  2502     02BC                     u2050:
  2503     02BC                     l1607:
  2504     02BC  30FF               	movlw	255
  2505     02BD  0538               	andwf	___flmul@grs,w
  2506     02BE  00B2               	movwf	??___flmul
  2507     02BF  30FF               	movlw	255
  2508     02C0  0539               	andwf	___flmul@grs+1,w
  2509     02C1  00B3               	movwf	??___flmul+1
  2510     02C2  30FF               	movlw	255
  2511     02C3  053A               	andwf	___flmul@grs+2,w
  2512     02C4  00B4               	movwf	??___flmul+2
  2513     02C5  307F               	movlw	127
  2514     02C6  053B               	andwf	___flmul@grs+3,w
  2515     02C7  00B5               	movwf	??___flmul+3
  2516     02C8  0835               	movf	??___flmul+3,w
  2517     02C9  0434               	iorwf	??___flmul+2,w
  2518     02CA  0433               	iorwf	??___flmul+1,w
  2519     02CB  0432               	iorwf	??___flmul,w
  2520     02CC  1903               	skipnz
  2521     02CD  2ACF               	goto	u2061
  2522     02CE  2AD0               	goto	u2060
  2523     02CF                     u2061:
  2524     02CF  2AD3               	goto	l602
  2525     02D0                     u2060:
  2526     02D0                     l1609:
  2527     02D0  01BC               	clrf	___flmul@aexp
  2528     02D1  0ABC               	incf	___flmul@aexp,f
  2529     02D2  2AD8               	goto	l1613
  2530     02D3                     l602:
  2531     02D3  1C3E               	btfss	___flmul@prod,0
  2532     02D4  2AD6               	goto	u2071
  2533     02D5  2AD7               	goto	u2070
  2534     02D6                     u2071:
  2535     02D6  2AD8               	goto	l1613
  2536     02D7                     u2070:
  2537     02D7  2AD0               	goto	l1609
  2538     02D8                     l1613:
  2539     02D8  083C               	movf	___flmul@aexp,w
  2540     02D9  1903               	btfsc	3,2
  2541     02DA  2ADC               	goto	u2081
  2542     02DB  2ADD               	goto	u2080
  2543     02DC                     u2081:
  2544     02DC  2B0E               	goto	l1623
  2545     02DD                     u2080:
  2546     02DD                     l1615:
  2547     02DD  3001               	movlw	1
  2548     02DE  07BE               	addwf	___flmul@prod,f
  2549     02DF  3000               	movlw	0
  2550     02E0  1803               	skipnc
  2551     02E1  3001               	movlw	1
  2552     02E2  07BF               	addwf	___flmul@prod+1,f
  2553     02E3  3000               	movlw	0
  2554     02E4  1803               	skipnc
  2555     02E5  3001               	movlw	1
  2556     02E6  07C0               	addwf	___flmul@prod+2,f
  2557     02E7  3000               	movlw	0
  2558     02E8  1803               	skipnc
  2559     02E9  3001               	movlw	1
  2560     02EA  07C1               	addwf	___flmul@prod+3,f
  2561     02EB                     l1617:
  2562     02EB  1C41               	btfss	___flmul@prod+3,0
  2563     02EC  2AEE               	goto	u2091
  2564     02ED  2AEF               	goto	u2090
  2565     02EE                     u2091:
  2566     02EE  2B0E               	goto	l1623
  2567     02EF                     u2090:
  2568     02EF                     l1619:
  2569     02EF  083E               	movf	___flmul@prod,w
  2570     02F0  00B2               	movwf	??___flmul
  2571     02F1  083F               	movf	___flmul@prod+1,w
  2572     02F2  00B3               	movwf	??___flmul+1
  2573     02F3  0840               	movf	___flmul@prod+2,w
  2574     02F4  00B4               	movwf	??___flmul+2
  2575     02F5  0841               	movf	___flmul@prod+3,w
  2576     02F6  00B5               	movwf	??___flmul+3
  2577     02F7  3001               	movlw	1
  2578     02F8  00B6               	movwf	??___flmul+4
  2579     02F9                     u2105:
  2580     02F9  0D35               	rlf	??___flmul+3,w
  2581     02FA  0CB5               	rrf	??___flmul+3,f
  2582     02FB  0CB4               	rrf	??___flmul+2,f
  2583     02FC  0CB3               	rrf	??___flmul+1,f
  2584     02FD  0CB2               	rrf	??___flmul,f
  2585     02FE                     u2100:
  2586     02FE  0BB6               	decfsz	??___flmul+4,f
  2587     02FF  2AF9               	goto	u2105
  2588     0300  0835               	movf	??___flmul+3,w
  2589     0301  00C1               	movwf	___flmul@prod+3
  2590     0302  0834               	movf	??___flmul+2,w
  2591     0303  00C0               	movwf	___flmul@prod+2
  2592     0304  0833               	movf	??___flmul+1,w
  2593     0305  00BF               	movwf	___flmul@prod+1
  2594     0306  0832               	movf	??___flmul,w
  2595     0307  00BE               	movwf	___flmul@prod
  2596     0308                     l1621:
  2597     0308  3001               	movlw	1
  2598     0309  07C2               	addwf	___flmul@temp,f
  2599     030A  1803               	skipnc
  2600     030B  0AC3               	incf	___flmul@temp+1,f
  2601     030C  3000               	movlw	0
  2602     030D  07C3               	addwf	___flmul@temp+1,f
  2603     030E                     l1623:
  2604     030E  0843               	movf	___flmul@temp+1,w
  2605     030F  3A80               	xorlw	128
  2606     0310  00FF               	movwf	btemp+1
  2607     0311  3080               	movlw	128
  2608     0312  027F               	subwf	btemp+1,w
  2609     0313  1D03               	skipz
  2610     0314  2B17               	goto	u2115
  2611     0315  30FF               	movlw	255
  2612     0316  0242               	subwf	___flmul@temp,w
  2613     0317                     u2115:
  2614     0317  1C03               	skipc
  2615     0318  2B1A               	goto	u2111
  2616     0319  2B1B               	goto	u2110
  2617     031A                     u2111:
  2618     031A  2B26               	goto	l1627
  2619     031B                     u2110:
  2620     031B                     l1625:
  2621     031B  307F               	movlw	127
  2622     031C  1283               	bcf	3,5	;RP0=0, select bank0
  2623     031D  1303               	bcf	3,6	;RP1=0, select bank0
  2624     031E  00C1               	movwf	___flmul@prod+3
  2625     031F  3080               	movlw	128
  2626     0320  00C0               	movwf	___flmul@prod+2
  2627     0321  3000               	movlw	0
  2628     0322  00BF               	movwf	___flmul@prod+1
  2629     0323  3000               	movlw	0
  2630     0324  00BE               	movwf	___flmul@prod
  2631     0325  2B57               	goto	l608
  2632     0326                     l1627:
  2633     0326  1283               	bcf	3,5	;RP0=0, select bank0
  2634     0327  1303               	bcf	3,6	;RP1=0, select bank0
  2635     0328  0843               	movf	___flmul@temp+1,w
  2636     0329  3A80               	xorlw	128
  2637     032A  00FF               	movwf	btemp+1
  2638     032B  3080               	movlw	128
  2639     032C  027F               	subwf	btemp+1,w
  2640     032D  1D03               	skipz
  2641     032E  2B31               	goto	u2125
  2642     032F  3001               	movlw	1
  2643     0330  0242               	subwf	___flmul@temp,w
  2644     0331                     u2125:
  2645     0331  1803               	skipnc
  2646     0332  2B34               	goto	u2121
  2647     0333  2B35               	goto	u2120
  2648     0334                     u2121:
  2649     0334  2B41               	goto	l1633
  2650     0335                     u2120:
  2651     0335                     l1629:
  2652     0335  3000               	movlw	0
  2653     0336  1283               	bcf	3,5	;RP0=0, select bank0
  2654     0337  1303               	bcf	3,6	;RP1=0, select bank0
  2655     0338  00C1               	movwf	___flmul@prod+3
  2656     0339  3000               	movlw	0
  2657     033A  00C0               	movwf	___flmul@prod+2
  2658     033B  3000               	movlw	0
  2659     033C  00BF               	movwf	___flmul@prod+1
  2660     033D  3000               	movlw	0
  2661     033E  00BE               	movwf	___flmul@prod
  2662     033F                     l1631:
  2663     033F  01B7               	clrf	___flmul@sign
  2664     0340  2B57               	goto	l608
  2665     0341                     l1633:
  2666     0341  1283               	bcf	3,5	;RP0=0, select bank0
  2667     0342  1303               	bcf	3,6	;RP1=0, select bank0
  2668     0343  0842               	movf	___flmul@temp,w
  2669     0344  00BD               	movwf	___flmul@bexp
  2670     0345  30FF               	movlw	255
  2671     0346  05BE               	andwf	___flmul@prod,f
  2672     0347  30FF               	movlw	255
  2673     0348  05BF               	andwf	___flmul@prod+1,f
  2674     0349  307F               	movlw	127
  2675     034A  05C0               	andwf	___flmul@prod+2,f
  2676     034B  3000               	movlw	0
  2677     034C  05C1               	andwf	___flmul@prod+3,f
  2678     034D                     l1635:
  2679     034D  1C3D               	btfss	___flmul@bexp,0
  2680     034E  2B50               	goto	u2131
  2681     034F  2B51               	goto	u2130
  2682     0350                     u2131:
  2683     0350  2B52               	goto	l1639
  2684     0351                     u2130:
  2685     0351                     l1637:
  2686     0351  17C0               	bsf	___flmul@prod+2,7
  2687     0352                     l1639:
  2688     0352  083D               	movf	___flmul@bexp,w
  2689     0353  00B2               	movwf	??___flmul
  2690     0354  1003               	clrc
  2691     0355  0C32               	rrf	??___flmul,w
  2692     0356  00C1               	movwf	___flmul@prod+3
  2693     0357                     l608:
  2694     0357  0837               	movf	___flmul@sign,w
  2695     0358  00B2               	movwf	??___flmul
  2696     0359  0832               	movf	??___flmul,w
  2697     035A  04C1               	iorwf	___flmul@prod+3,f
  2698     035B                     l1641:
  2699     035B  0841               	movf	___flmul@prod+3,w
  2700     035C  00AD               	movwf	?___flmul+3
  2701     035D  0840               	movf	___flmul@prod+2,w
  2702     035E  00AC               	movwf	?___flmul+2
  2703     035F  083F               	movf	___flmul@prod+1,w
  2704     0360  00AB               	movwf	?___flmul+1
  2705     0361  083E               	movf	___flmul@prod,w
  2706     0362  00AA               	movwf	?___flmul
  2707     0363                     l596:
  2708     0363  0008               	return
  2709     0364                     __end_of___flmul:
  2710                           
  2711                           	psect	text8
  2712     0F7F                     __ptext8:	
  2713 ;; *************** function __Umul8_16 *****************
  2714 ;; Defined at:
  2715 ;;		line 4 in file "C:\Program Files\Microchip\xc8\v2.40\pic\sources\c90\common\Umul8_16.c"
  2716 ;; Parameters:    Size  Location     Type
  2717 ;;  multiplier      1    wreg     unsigned char 
  2718 ;;  multiplicand    1    3[COMMON] unsigned char 
  2719 ;; Auto vars:     Size  Location     Type
  2720 ;;  multiplier      1    4[BANK0 ] unsigned char 
  2721 ;;  word_mpld       2    2[BANK0 ] unsigned int 
  2722 ;;  product         2    0[BANK0 ] unsigned int 
  2723 ;; Return value:  Size  Location     Type
  2724 ;;                  2    3[COMMON] unsigned int 
  2725 ;; Registers used:
  2726 ;;		wreg, status,2, status,0
  2727 ;; Tracked objects:
  2728 ;;		On entry : 0/0
  2729 ;;		On exit  : 0/0
  2730 ;;		Unchanged: 0/0
  2731 ;; Data sizes:     COMMON   BANK0   BANK1   BANK3   BANK2
  2732 ;;      Params:         2       0       0       0       0
  2733 ;;      Locals:         0       5       0       0       0
  2734 ;;      Temps:          2       0       0       0       0
  2735 ;;      Totals:         4       5       0       0       0
  2736 ;;Total ram usage:        9 bytes
  2737 ;; Hardware stack levels used: 1
  2738 ;; Hardware stack levels required when called: 1
  2739 ;; This function calls:
  2740 ;;		Nothing
  2741 ;; This function is called by:
  2742 ;;		___flmul
  2743 ;; This function uses a non-reentrant model
  2744 ;;
  2745                           
  2746     0F7F                     __Umul8_16:	
  2747                           ;psect for function __Umul8_16
  2748                           
  2749                           
  2750                           ;incstack = 0
  2751                           ; Regs used in __Umul8_16: [wreg+status,2+status,0]
  2752                           ;__Umul8_16@multiplier stored from wreg
  2753     0F7F  1283               	bcf	3,5	;RP0=0, select bank0
  2754     0F80  1303               	bcf	3,6	;RP1=0, select bank0
  2755     0F81  00A4               	movwf	__Umul8_16@multiplier
  2756     0F82                     l1261:
  2757     0F82  01A0               	clrf	__Umul8_16@product
  2758     0F83  01A1               	clrf	__Umul8_16@product+1
  2759     0F84                     l1263:
  2760     0F84  0873               	movf	__Umul8_16@multiplicand,w
  2761     0F85  00F5               	movwf	??__Umul8_16
  2762     0F86  01F6               	clrf	??__Umul8_16+1
  2763     0F87  0875               	movf	??__Umul8_16,w
  2764     0F88  00A2               	movwf	__Umul8_16@word_mpld
  2765     0F89  0876               	movf	??__Umul8_16+1,w
  2766     0F8A  00A3               	movwf	__Umul8_16@word_mpld+1
  2767     0F8B                     l1265:
  2768     0F8B  1C24               	btfss	__Umul8_16@multiplier,0
  2769     0F8C  2F8E               	goto	u1181
  2770     0F8D  2F8F               	goto	u1180
  2771     0F8E                     u1181:
  2772     0F8E  2F95               	goto	l615
  2773     0F8F                     u1180:
  2774     0F8F                     l1267:
  2775     0F8F  0822               	movf	__Umul8_16@word_mpld,w
  2776     0F90  07A0               	addwf	__Umul8_16@product,f
  2777     0F91  1803               	skipnc
  2778     0F92  0AA1               	incf	__Umul8_16@product+1,f
  2779     0F93  0823               	movf	__Umul8_16@word_mpld+1,w
  2780     0F94  07A1               	addwf	__Umul8_16@product+1,f
  2781     0F95                     l615:
  2782     0F95  3001               	movlw	1
  2783     0F96                     u1195:
  2784     0F96  1003               	clrc
  2785     0F97  0DA2               	rlf	__Umul8_16@word_mpld,f
  2786     0F98  0DA3               	rlf	__Umul8_16@word_mpld+1,f
  2787     0F99  3EFF               	addlw	-1
  2788     0F9A  1D03               	skipz
  2789     0F9B  2F96               	goto	u1195
  2790     0F9C  1003               	clrc
  2791     0F9D  0CA4               	rrf	__Umul8_16@multiplier,f
  2792     0F9E                     l1269:
  2793     0F9E  0824               	movf	__Umul8_16@multiplier,w
  2794     0F9F  1D03               	btfss	3,2
  2795     0FA0  2FA2               	goto	u1201
  2796     0FA1  2FA3               	goto	u1200
  2797     0FA2                     u1201:
  2798     0FA2  2F8B               	goto	l1265
  2799     0FA3                     u1200:
  2800     0FA3                     l1271:
  2801     0FA3  0821               	movf	__Umul8_16@product+1,w
  2802     0FA4  00F4               	movwf	?__Umul8_16+1
  2803     0FA5  0820               	movf	__Umul8_16@product,w
  2804     0FA6  00F3               	movwf	?__Umul8_16
  2805     0FA7                     l617:
  2806     0FA7  0008               	return
  2807     0FA8                     __end_of__Umul8_16:
  2808                           
  2809                           	psect	text9
  2810     0364                     __ptext9:	
  2811 ;; *************** function ___fladd *****************
  2812 ;; Defined at:
  2813 ;;		line 10 in file "C:\Program Files\Microchip\xc8\v2.40\pic\sources\c90\common\sprcadd.c"
  2814 ;; Parameters:    Size  Location     Type
  2815 ;;  b               4   36[BANK0 ] unsigned int 
  2816 ;;  a               4   40[BANK0 ] unsigned int 
  2817 ;; Auto vars:     Size  Location     Type
  2818 ;;  grs             1   55[BANK0 ] unsigned char 
  2819 ;;  bexp            1   54[BANK0 ] unsigned char 
  2820 ;;  aexp            1   53[BANK0 ] unsigned char 
  2821 ;;  signs           1   52[BANK0 ] unsigned char 
  2822 ;; Return value:  Size  Location     Type
  2823 ;;                  4   36[BANK0 ] unsigned char 
  2824 ;; Registers used:
  2825 ;;		wreg, status,2, status,0, btemp+1
  2826 ;; Tracked objects:
  2827 ;;		On entry : 0/0
  2828 ;;		On exit  : 0/0
  2829 ;;		Unchanged: 0/0
  2830 ;; Data sizes:     COMMON   BANK0   BANK1   BANK3   BANK2
  2831 ;;      Params:         0       8       0       0       0
  2832 ;;      Locals:         0       4       0       0       0
  2833 ;;      Temps:          0       8       0       0       0
  2834 ;;      Totals:         0      20       0       0       0
  2835 ;;Total ram usage:       20 bytes
  2836 ;; Hardware stack levels used: 1
  2837 ;; Hardware stack levels required when called: 1
  2838 ;; This function calls:
  2839 ;;		Nothing
  2840 ;; This function is called by:
  2841 ;;		_conversion
  2842 ;; This function uses a non-reentrant model
  2843 ;;
  2844                           
  2845     0364                     ___fladd:	
  2846                           ;psect for function ___fladd
  2847                           
  2848     0364                     l1311:	
  2849                           ;incstack = 0
  2850                           ; Regs used in ___fladd: [wreg+status,2+status,0+btemp+1]
  2851                           
  2852     0364  1283               	bcf	3,5	;RP0=0, select bank0
  2853     0365  1303               	bcf	3,6	;RP1=0, select bank0
  2854     0366  0847               	movf	___fladd@b+3,w
  2855     0367  3980               	andlw	128
  2856     0368  00D4               	movwf	___fladd@signs
  2857     0369                     l1313:
  2858     0369  0847               	movf	___fladd@b+3,w
  2859     036A  00CC               	movwf	??___fladd
  2860     036B  074C               	addwf	??___fladd,w
  2861     036C  00D6               	movwf	___fladd@bexp
  2862     036D                     l1315:
  2863     036D  1FC6               	btfss	___fladd@b+2,7
  2864     036E  2B70               	goto	u1311
  2865     036F  2B71               	goto	u1310
  2866     0370                     u1311:
  2867     0370  2B72               	goto	l1319
  2868     0371                     u1310:
  2869     0371                     l1317:
  2870     0371  1456               	bsf	___fladd@bexp,0
  2871     0372                     l1319:
  2872     0372  0856               	movf	___fladd@bexp,w
  2873     0373  1903               	btfsc	3,2
  2874     0374  2B76               	goto	u1321
  2875     0375  2B77               	goto	u1320
  2876     0376                     u1321:
  2877     0376  2B87               	goto	l1329
  2878     0377                     u1320:
  2879     0377                     l1321:
  2880     0377  0A56               	incf	___fladd@bexp,w
  2881     0378  1D03               	btfss	3,2
  2882     0379  2B7B               	goto	u1331
  2883     037A  2B7C               	goto	u1330
  2884     037B                     u1331:
  2885     037B  2B84               	goto	l1325
  2886     037C                     u1330:
  2887     037C                     l1323:
  2888     037C  3000               	movlw	0
  2889     037D  00C7               	movwf	___fladd@b+3
  2890     037E  3000               	movlw	0
  2891     037F  00C6               	movwf	___fladd@b+2
  2892     0380  3000               	movlw	0
  2893     0381  00C5               	movwf	___fladd@b+1
  2894     0382  3000               	movlw	0
  2895     0383  00C4               	movwf	___fladd@b
  2896     0384                     l1325:
  2897     0384  17C6               	bsf	___fladd@b+2,7
  2898     0385                     l1327:
  2899     0385  01C7               	clrf	___fladd@b+3
  2900     0386  2B8F               	goto	l1331
  2901     0387                     l1329:
  2902     0387  3000               	movlw	0
  2903     0388  00C7               	movwf	___fladd@b+3
  2904     0389  3000               	movlw	0
  2905     038A  00C6               	movwf	___fladd@b+2
  2906     038B  3000               	movlw	0
  2907     038C  00C5               	movwf	___fladd@b+1
  2908     038D  3000               	movlw	0
  2909     038E  00C4               	movwf	___fladd@b
  2910     038F                     l1331:
  2911     038F  084B               	movf	___fladd@a+3,w
  2912     0390  3980               	andlw	128
  2913     0391  00D5               	movwf	___fladd@aexp
  2914     0392                     l1333:
  2915     0392  0855               	movf	___fladd@aexp,w
  2916     0393  0654               	xorwf	___fladd@signs,w
  2917     0394  1903               	skipnz
  2918     0395  2B97               	goto	u1341
  2919     0396  2B98               	goto	u1340
  2920     0397                     u1341:
  2921     0397  2B99               	goto	l1337
  2922     0398                     u1340:
  2923     0398                     l1335:
  2924     0398  1754               	bsf	___fladd@signs,6
  2925     0399                     l1337:
  2926     0399  084B               	movf	___fladd@a+3,w
  2927     039A  00CC               	movwf	??___fladd
  2928     039B  074C               	addwf	??___fladd,w
  2929     039C  00D5               	movwf	___fladd@aexp
  2930     039D                     l1339:
  2931     039D  1FCA               	btfss	___fladd@a+2,7
  2932     039E  2BA0               	goto	u1351
  2933     039F  2BA1               	goto	u1350
  2934     03A0                     u1351:
  2935     03A0  2BA2               	goto	l1343
  2936     03A1                     u1350:
  2937     03A1                     l1341:
  2938     03A1  1455               	bsf	___fladd@aexp,0
  2939     03A2                     l1343:
  2940     03A2  0855               	movf	___fladd@aexp,w
  2941     03A3  1903               	btfsc	3,2
  2942     03A4  2BA6               	goto	u1361
  2943     03A5  2BA7               	goto	u1360
  2944     03A6                     u1361:
  2945     03A6  2BB7               	goto	l1353
  2946     03A7                     u1360:
  2947     03A7                     l1345:
  2948     03A7  0A55               	incf	___fladd@aexp,w
  2949     03A8  1D03               	btfss	3,2
  2950     03A9  2BAB               	goto	u1371
  2951     03AA  2BAC               	goto	u1370
  2952     03AB                     u1371:
  2953     03AB  2BB4               	goto	l1349
  2954     03AC                     u1370:
  2955     03AC                     l1347:
  2956     03AC  3000               	movlw	0
  2957     03AD  00CB               	movwf	___fladd@a+3
  2958     03AE  3000               	movlw	0
  2959     03AF  00CA               	movwf	___fladd@a+2
  2960     03B0  3000               	movlw	0
  2961     03B1  00C9               	movwf	___fladd@a+1
  2962     03B2  3000               	movlw	0
  2963     03B3  00C8               	movwf	___fladd@a
  2964     03B4                     l1349:
  2965     03B4  17CA               	bsf	___fladd@a+2,7
  2966     03B5                     l1351:
  2967     03B5  01CB               	clrf	___fladd@a+3
  2968     03B6  2BBF               	goto	l500
  2969     03B7                     l1353:
  2970     03B7  3000               	movlw	0
  2971     03B8  00CB               	movwf	___fladd@a+3
  2972     03B9  3000               	movlw	0
  2973     03BA  00CA               	movwf	___fladd@a+2
  2974     03BB  3000               	movlw	0
  2975     03BC  00C9               	movwf	___fladd@a+1
  2976     03BD  3000               	movlw	0
  2977     03BE  00C8               	movwf	___fladd@a
  2978     03BF                     l500:
  2979     03BF  0856               	movf	___fladd@bexp,w
  2980     03C0  0255               	subwf	___fladd@aexp,w
  2981     03C1  1803               	skipnc
  2982     03C2  2BC4               	goto	u1381
  2983     03C3  2BC5               	goto	u1380
  2984     03C4                     u1381:
  2985     03C4  2BEB               	goto	l1389
  2986     03C5                     u1380:
  2987     03C5                     l1355:
  2988     03C5  1F54               	btfss	___fladd@signs,6
  2989     03C6  2BC8               	goto	u1391
  2990     03C7  2BC9               	goto	u1390
  2991     03C8                     u1391:
  2992     03C8  2BCD               	goto	l1359
  2993     03C9                     u1390:
  2994     03C9                     l1357:
  2995     03C9  3080               	movlw	128
  2996     03CA  00CC               	movwf	??___fladd
  2997     03CB  084C               	movf	??___fladd,w
  2998     03CC  06D4               	xorwf	___fladd@signs,f
  2999     03CD                     l1359:
  3000     03CD  0856               	movf	___fladd@bexp,w
  3001     03CE  00D7               	movwf	___fladd@grs
  3002     03CF                     l1361:
  3003     03CF  0855               	movf	___fladd@aexp,w
  3004     03D0  00D6               	movwf	___fladd@bexp
  3005     03D1                     l1363:
  3006     03D1  0857               	movf	___fladd@grs,w
  3007     03D2  00D5               	movwf	___fladd@aexp
  3008     03D3                     l1365:
  3009     03D3  0844               	movf	___fladd@b,w
  3010     03D4  00D7               	movwf	___fladd@grs
  3011     03D5                     l1367:
  3012     03D5  0848               	movf	___fladd@a,w
  3013     03D6  00C4               	movwf	___fladd@b
  3014     03D7                     l1369:
  3015     03D7  0857               	movf	___fladd@grs,w
  3016     03D8  00C8               	movwf	___fladd@a
  3017     03D9                     l1371:
  3018     03D9  0845               	movf	___fladd@b+1,w
  3019     03DA  00D7               	movwf	___fladd@grs
  3020     03DB                     l1373:
  3021     03DB  0849               	movf	___fladd@a+1,w
  3022     03DC  00C5               	movwf	___fladd@b+1
  3023     03DD                     l1375:
  3024     03DD  0857               	movf	___fladd@grs,w
  3025     03DE  00C9               	movwf	___fladd@a+1
  3026     03DF                     l1377:
  3027     03DF  0846               	movf	___fladd@b+2,w
  3028     03E0  00D7               	movwf	___fladd@grs
  3029     03E1                     l1379:
  3030     03E1  084A               	movf	___fladd@a+2,w
  3031     03E2  00C6               	movwf	___fladd@b+2
  3032     03E3                     l1381:
  3033     03E3  0857               	movf	___fladd@grs,w
  3034     03E4  00CA               	movwf	___fladd@a+2
  3035     03E5                     l1383:
  3036     03E5  0847               	movf	___fladd@b+3,w
  3037     03E6  00D7               	movwf	___fladd@grs
  3038     03E7                     l1385:
  3039     03E7  084B               	movf	___fladd@a+3,w
  3040     03E8  00C7               	movwf	___fladd@b+3
  3041     03E9                     l1387:
  3042     03E9  0857               	movf	___fladd@grs,w
  3043     03EA  00CB               	movwf	___fladd@a+3
  3044     03EB                     l1389:
  3045     03EB  01D7               	clrf	___fladd@grs
  3046     03EC                     l1391:
  3047     03EC  0855               	movf	___fladd@aexp,w
  3048     03ED  00CC               	movwf	??___fladd
  3049     03EE  01CD               	clrf	??___fladd+1
  3050     03EF  084D               	movf	??___fladd+1,w
  3051     03F0  00CF               	movwf	??___fladd+3
  3052     03F1  0856               	movf	___fladd@bexp,w
  3053     03F2  024C               	subwf	??___fladd,w
  3054     03F3  00CE               	movwf	??___fladd+2
  3055     03F4  1C03               	skipc
  3056     03F5  03CF               	decf	??___fladd+3,f
  3057     03F6  084F               	movf	??___fladd+3,w
  3058     03F7  3A80               	xorlw	128
  3059     03F8  00FF               	movwf	btemp+1
  3060     03F9  3080               	movlw	128
  3061     03FA  027F               	subwf	btemp+1,w
  3062     03FB  1D03               	skipz
  3063     03FC  2BFF               	goto	u1405
  3064     03FD  301A               	movlw	26
  3065     03FE  024E               	subwf	??___fladd+2,w
  3066     03FF                     u1405:
  3067     03FF  1C03               	skipc
  3068     0400  2C02               	goto	u1401
  3069     0401  2C03               	goto	u1400
  3070     0402                     u1401:
  3071     0402  2C3A               	goto	l1407
  3072     0403                     u1400:
  3073     0403                     l1393:
  3074     0403  1283               	bcf	3,5	;RP0=0, select bank0
  3075     0404  1303               	bcf	3,6	;RP1=0, select bank0
  3076     0405  0847               	movf	___fladd@b+3,w
  3077     0406  0446               	iorwf	___fladd@b+2,w
  3078     0407  0445               	iorwf	___fladd@b+1,w
  3079     0408  0444               	iorwf	___fladd@b,w
  3080     0409  1D03               	skipz
  3081     040A  2C0C               	goto	u1411
  3082     040B  2C0E               	goto	u1410
  3083     040C                     u1411:
  3084     040C  3001               	movlw	1
  3085     040D  2C0F               	goto	u1420
  3086     040E                     u1410:
  3087     040E  3000               	movlw	0
  3088     040F                     u1420:
  3089     040F  00D7               	movwf	___fladd@grs
  3090     0410  3000               	movlw	0
  3091     0411  00C7               	movwf	___fladd@b+3
  3092     0412  3000               	movlw	0
  3093     0413  00C6               	movwf	___fladd@b+2
  3094     0414  3000               	movlw	0
  3095     0415  00C5               	movwf	___fladd@b+1
  3096     0416  3000               	movlw	0
  3097     0417  00C4               	movwf	___fladd@b
  3098     0418  0855               	movf	___fladd@aexp,w
  3099     0419  00D6               	movwf	___fladd@bexp
  3100     041A  2C42               	goto	l504
  3101     041B                     l506:
  3102     041B  1C57               	btfss	___fladd@grs,0
  3103     041C  2C1E               	goto	u1431
  3104     041D  2C1F               	goto	u1430
  3105     041E                     u1431:
  3106     041E  2C26               	goto	l1397
  3107     041F                     u1430:
  3108     041F                     l1395:
  3109     041F  0857               	movf	___fladd@grs,w
  3110     0420  00CC               	movwf	??___fladd
  3111     0421  1003               	clrc
  3112     0422  0C4C               	rrf	??___fladd,w
  3113     0423  3801               	iorlw	1
  3114     0424  00D7               	movwf	___fladd@grs
  3115     0425  2C28               	goto	l1399
  3116     0426                     l1397:
  3117     0426  1003               	clrc
  3118     0427  0CD7               	rrf	___fladd@grs,f
  3119     0428                     l1399:
  3120     0428  1C44               	btfss	___fladd@b,0
  3121     0429  2C2B               	goto	u1441
  3122     042A  2C2C               	goto	u1440
  3123     042B                     u1441:
  3124     042B  2C2D               	goto	l1403
  3125     042C                     u1440:
  3126     042C                     l1401:
  3127     042C  17D7               	bsf	___fladd@grs,7
  3128     042D                     l1403:
  3129     042D  3001               	movlw	1
  3130     042E  00CC               	movwf	??___fladd
  3131     042F                     u1455:
  3132     042F  0D47               	rlf	___fladd@b+3,w
  3133     0430  0CC7               	rrf	___fladd@b+3,f
  3134     0431  0CC6               	rrf	___fladd@b+2,f
  3135     0432  0CC5               	rrf	___fladd@b+1,f
  3136     0433  0CC4               	rrf	___fladd@b,f
  3137     0434  0BCC               	decfsz	??___fladd& (0+127),f
  3138     0435  2C2F               	goto	u1455
  3139     0436                     l1405:
  3140     0436  3001               	movlw	1
  3141     0437  00CC               	movwf	??___fladd
  3142     0438  084C               	movf	??___fladd,w
  3143     0439  07D6               	addwf	___fladd@bexp,f
  3144     043A                     l1407:
  3145     043A  1283               	bcf	3,5	;RP0=0, select bank0
  3146     043B  1303               	bcf	3,6	;RP1=0, select bank0
  3147     043C  0855               	movf	___fladd@aexp,w
  3148     043D  0256               	subwf	___fladd@bexp,w
  3149     043E  1C03               	skipc
  3150     043F  2C41               	goto	u1461
  3151     0440  2C42               	goto	u1460
  3152     0441                     u1461:
  3153     0441  2C1B               	goto	l506
  3154     0442                     u1460:
  3155     0442                     l504:
  3156     0442  1B54               	btfsc	___fladd@signs,6
  3157     0443  2C45               	goto	u1471
  3158     0444  2C46               	goto	u1470
  3159     0445                     u1471:
  3160     0445  2C8F               	goto	l1433
  3161     0446                     u1470:
  3162     0446                     l1409:
  3163     0446  0856               	movf	___fladd@bexp,w
  3164     0447  1D03               	btfss	3,2
  3165     0448  2C4A               	goto	u1481
  3166     0449  2C4B               	goto	u1480
  3167     044A                     u1481:
  3168     044A  2C54               	goto	l1415
  3169     044B                     u1480:
  3170     044B                     l1411:
  3171     044B  3000               	movlw	0
  3172     044C  00C7               	movwf	?___fladd+3
  3173     044D  3000               	movlw	0
  3174     044E  00C6               	movwf	?___fladd+2
  3175     044F  3000               	movlw	0
  3176     0450  00C5               	movwf	?___fladd+1
  3177     0451  3000               	movlw	0
  3178     0452  00C4               	movwf	?___fladd
  3179     0453  2DBB               	goto	l513
  3180     0454                     l1415:
  3181     0454  0848               	movf	___fladd@a,w
  3182     0455  07C4               	addwf	___fladd@b,f
  3183     0456  0849               	movf	___fladd@a+1,w
  3184     0457  1103               	clrz
  3185     0458  1803               	skipnc
  3186     0459  3E01               	addlw	1
  3187     045A  1903               	skipnz
  3188     045B  2C5D               	goto	u1491
  3189     045C  07C5               	addwf	___fladd@b+1,f
  3190     045D                     u1491:
  3191     045D  084A               	movf	___fladd@a+2,w
  3192     045E  1103               	clrz
  3193     045F  1803               	skipnc
  3194     0460  3E01               	addlw	1
  3195     0461  1903               	skipnz
  3196     0462  2C64               	goto	u1492
  3197     0463  07C6               	addwf	___fladd@b+2,f
  3198     0464                     u1492:
  3199     0464  084B               	movf	___fladd@a+3,w
  3200     0465  1103               	clrz
  3201     0466  1803               	skipnc
  3202     0467  3E01               	addlw	1
  3203     0468  1903               	skipnz
  3204     0469  2C6B               	goto	u1493
  3205     046A  07C7               	addwf	___fladd@b+3,f
  3206     046B                     u1493:
  3207     046B                     l1417:
  3208     046B  1C47               	btfss	___fladd@b+3,0
  3209     046C  2C6E               	goto	u1501
  3210     046D  2C6F               	goto	u1500
  3211     046E                     u1501:
  3212     046E  2D43               	goto	l1467
  3213     046F                     u1500:
  3214     046F                     l1419:
  3215     046F  1C57               	btfss	___fladd@grs,0
  3216     0470  2C72               	goto	u1511
  3217     0471  2C73               	goto	u1510
  3218     0472                     u1511:
  3219     0472  2C7A               	goto	l1423
  3220     0473                     u1510:
  3221     0473                     l1421:
  3222     0473  0857               	movf	___fladd@grs,w
  3223     0474  00CC               	movwf	??___fladd
  3224     0475  1003               	clrc
  3225     0476  0C4C               	rrf	??___fladd,w
  3226     0477  3801               	iorlw	1
  3227     0478  00D7               	movwf	___fladd@grs
  3228     0479  2C7C               	goto	l1425
  3229     047A                     l1423:
  3230     047A  1003               	clrc
  3231     047B  0CD7               	rrf	___fladd@grs,f
  3232     047C                     l1425:
  3233     047C  1C44               	btfss	___fladd@b,0
  3234     047D  2C7F               	goto	u1521
  3235     047E  2C80               	goto	u1520
  3236     047F                     u1521:
  3237     047F  2C81               	goto	l1429
  3238     0480                     u1520:
  3239     0480                     l1427:
  3240     0480  17D7               	bsf	___fladd@grs,7
  3241     0481                     l1429:
  3242     0481  3001               	movlw	1
  3243     0482  00CC               	movwf	??___fladd
  3244     0483                     u1535:
  3245     0483  0D47               	rlf	___fladd@b+3,w
  3246     0484  0CC7               	rrf	___fladd@b+3,f
  3247     0485  0CC6               	rrf	___fladd@b+2,f
  3248     0486  0CC5               	rrf	___fladd@b+1,f
  3249     0487  0CC4               	rrf	___fladd@b,f
  3250     0488  0BCC               	decfsz	??___fladd& (0+127),f
  3251     0489  2C83               	goto	u1535
  3252     048A                     l1431:
  3253     048A  3001               	movlw	1
  3254     048B  00CC               	movwf	??___fladd
  3255     048C  084C               	movf	??___fladd,w
  3256     048D  07D6               	addwf	___fladd@bexp,f
  3257     048E  2D43               	goto	l1467
  3258     048F                     l1433:
  3259     048F  0847               	movf	___fladd@b+3,w
  3260     0490  3A80               	xorlw	128
  3261     0491  00FF               	movwf	btemp+1
  3262     0492  084B               	movf	___fladd@a+3,w
  3263     0493  3A80               	xorlw	128
  3264     0494  027F               	subwf	btemp+1,w
  3265     0495  1D03               	skipz
  3266     0496  2CA1               	goto	u1543
  3267     0497  084A               	movf	___fladd@a+2,w
  3268     0498  0246               	subwf	___fladd@b+2,w
  3269     0499  1D03               	skipz
  3270     049A  2CA1               	goto	u1543
  3271     049B  0849               	movf	___fladd@a+1,w
  3272     049C  0245               	subwf	___fladd@b+1,w
  3273     049D  1D03               	skipz
  3274     049E  2CA1               	goto	u1543
  3275     049F  0848               	movf	___fladd@a,w
  3276     04A0  0244               	subwf	___fladd@b,w
  3277     04A1                     u1543:
  3278     04A1  1803               	skipnc
  3279     04A2  2CA4               	goto	u1541
  3280     04A3  2CA5               	goto	u1540
  3281     04A4                     u1541:
  3282     04A4  2CFD               	goto	l1443
  3283     04A5                     u1540:
  3284     04A5                     l1435:
  3285     04A5  30FF               	movlw	255
  3286     04A6  00CC               	movwf	??___fladd
  3287     04A7  30FF               	movlw	255
  3288     04A8  00CD               	movwf	??___fladd+1
  3289     04A9  30FF               	movlw	255
  3290     04AA  00CE               	movwf	??___fladd+2
  3291     04AB  30FF               	movlw	255
  3292     04AC  00CF               	movwf	??___fladd+3
  3293     04AD  0848               	movf	___fladd@a,w
  3294     04AE  00D0               	movwf	??___fladd+4
  3295     04AF  0849               	movf	___fladd@a+1,w
  3296     04B0  00D1               	movwf	??___fladd+5
  3297     04B1  084A               	movf	___fladd@a+2,w
  3298     04B2  00D2               	movwf	??___fladd+6
  3299     04B3  084B               	movf	___fladd@a+3,w
  3300     04B4  00D3               	movwf	??___fladd+7
  3301     04B5  0844               	movf	___fladd@b,w
  3302     04B6  02D0               	subwf	??___fladd+4,f
  3303     04B7  0845               	movf	___fladd@b+1,w
  3304     04B8  1C03               	skipc
  3305     04B9  0F45               	incfsz	___fladd@b+1,w
  3306     04BA  2CBC               	goto	u1551
  3307     04BB  2CBD               	goto	u1552
  3308     04BC                     u1551:
  3309     04BC  02D1               	subwf	??___fladd+5,f
  3310     04BD                     u1552:
  3311     04BD  0846               	movf	___fladd@b+2,w
  3312     04BE  1C03               	skipc
  3313     04BF  0F46               	incfsz	___fladd@b+2,w
  3314     04C0  2CC2               	goto	u1553
  3315     04C1  2CC3               	goto	u1554
  3316     04C2                     u1553:
  3317     04C2  02D2               	subwf	??___fladd+6,f
  3318     04C3                     u1554:
  3319     04C3  0847               	movf	___fladd@b+3,w
  3320     04C4  1C03               	skipc
  3321     04C5  0F47               	incfsz	___fladd@b+3,w
  3322     04C6  2CC8               	goto	u1555
  3323     04C7  2CC9               	goto	u1556
  3324     04C8                     u1555:
  3325     04C8  02D3               	subwf	??___fladd+7,f
  3326     04C9                     u1556:
  3327     04C9  0850               	movf	??___fladd+4,w
  3328     04CA  07CC               	addwf	??___fladd,f
  3329     04CB  0851               	movf	??___fladd+5,w
  3330     04CC  1803               	skipnc
  3331     04CD  0F51               	incfsz	??___fladd+5,w
  3332     04CE  2CD0               	goto	u1560
  3333     04CF  2CD1               	goto	u1561
  3334     04D0                     u1560:
  3335     04D0  07CD               	addwf	??___fladd+1,f
  3336     04D1                     u1561:
  3337     04D1  0852               	movf	??___fladd+6,w
  3338     04D2  1803               	skipnc
  3339     04D3  0F52               	incfsz	??___fladd+6,w
  3340     04D4  2CD6               	goto	u1562
  3341     04D5  2CD7               	goto	u1563
  3342     04D6                     u1562:
  3343     04D6  07CE               	addwf	??___fladd+2,f
  3344     04D7                     u1563:
  3345     04D7  0853               	movf	??___fladd+7,w
  3346     04D8  1803               	skipnc
  3347     04D9  0A53               	incf	??___fladd+7,w
  3348     04DA  07CF               	addwf	??___fladd+3,f
  3349     04DB  084F               	movf	??___fladd+3,w
  3350     04DC  00C7               	movwf	___fladd@b+3
  3351     04DD  084E               	movf	??___fladd+2,w
  3352     04DE  00C6               	movwf	___fladd@b+2
  3353     04DF  084D               	movf	??___fladd+1,w
  3354     04E0  00C5               	movwf	___fladd@b+1
  3355     04E1  084C               	movf	??___fladd,w
  3356     04E2  00C4               	movwf	___fladd@b
  3357     04E3                     l1437:
  3358     04E3  3080               	movlw	128
  3359     04E4  00CC               	movwf	??___fladd
  3360     04E5  084C               	movf	??___fladd,w
  3361     04E6  06D4               	xorwf	___fladd@signs,f
  3362     04E7  09D7               	comf	___fladd@grs,f
  3363     04E8  0AD7               	incf	___fladd@grs,f
  3364     04E9                     l1439:
  3365     04E9  0857               	movf	___fladd@grs,w
  3366     04EA  1D03               	btfss	3,2
  3367     04EB  2CED               	goto	u1571
  3368     04EC  2CEE               	goto	u1570
  3369     04ED                     u1571:
  3370     04ED  2D0B               	goto	l521
  3371     04EE                     u1570:
  3372     04EE                     l1441:
  3373     04EE  3001               	movlw	1
  3374     04EF  07C4               	addwf	___fladd@b,f
  3375     04F0  3000               	movlw	0
  3376     04F1  1803               	skipnc
  3377     04F2  3001               	movlw	1
  3378     04F3  07C5               	addwf	___fladd@b+1,f
  3379     04F4  3000               	movlw	0
  3380     04F5  1803               	skipnc
  3381     04F6  3001               	movlw	1
  3382     04F7  07C6               	addwf	___fladd@b+2,f
  3383     04F8  3000               	movlw	0
  3384     04F9  1803               	skipnc
  3385     04FA  3001               	movlw	1
  3386     04FB  07C7               	addwf	___fladd@b+3,f
  3387     04FC  2D0B               	goto	l521
  3388     04FD                     l1443:
  3389     04FD  0848               	movf	___fladd@a,w
  3390     04FE  02C4               	subwf	___fladd@b,f
  3391     04FF  0849               	movf	___fladd@a+1,w
  3392     0500  1C03               	skipc
  3393     0501  0F49               	incfsz	___fladd@a+1,w
  3394     0502  02C5               	subwf	___fladd@b+1,f
  3395     0503  084A               	movf	___fladd@a+2,w
  3396     0504  1C03               	skipc
  3397     0505  0F4A               	incfsz	___fladd@a+2,w
  3398     0506  02C6               	subwf	___fladd@b+2,f
  3399     0507  084B               	movf	___fladd@a+3,w
  3400     0508  1C03               	skipc
  3401     0509  0F4B               	incfsz	___fladd@a+3,w
  3402     050A  02C7               	subwf	___fladd@b+3,f
  3403     050B                     l521:
  3404     050B  0847               	movf	___fladd@b+3,w
  3405     050C  0446               	iorwf	___fladd@b+2,w
  3406     050D  0445               	iorwf	___fladd@b+1,w
  3407     050E  0444               	iorwf	___fladd@b,w
  3408     050F  1D03               	skipz
  3409     0510  2D12               	goto	u1581
  3410     0511  2D13               	goto	u1580
  3411     0512                     u1581:
  3412     0512  2D3F               	goto	l1465
  3413     0513                     u1580:
  3414     0513                     l1445:
  3415     0513  0857               	movf	___fladd@grs,w
  3416     0514  1D03               	btfss	3,2
  3417     0515  2D17               	goto	u1591
  3418     0516  2D18               	goto	u1590
  3419     0517                     u1591:
  3420     0517  2D3F               	goto	l1465
  3421     0518                     u1590:
  3422     0518                     l1447:
  3423     0518  3000               	movlw	0
  3424     0519  00C7               	movwf	?___fladd+3
  3425     051A  3000               	movlw	0
  3426     051B  00C6               	movwf	?___fladd+2
  3427     051C  3000               	movlw	0
  3428     051D  00C5               	movwf	?___fladd+1
  3429     051E  3000               	movlw	0
  3430     051F  00C4               	movwf	?___fladd
  3431     0520  2DBB               	goto	l513
  3432     0521                     l1451:
  3433     0521  3001               	movlw	1
  3434     0522  00CC               	movwf	??___fladd
  3435     0523                     u1605:
  3436     0523  1003               	clrc
  3437     0524  0DC4               	rlf	___fladd@b,f
  3438     0525  0DC5               	rlf	___fladd@b+1,f
  3439     0526  0DC6               	rlf	___fladd@b+2,f
  3440     0527  0DC7               	rlf	___fladd@b+3,f
  3441     0528  0BCC               	decfsz	??___fladd,f
  3442     0529  2D23               	goto	u1605
  3443     052A                     l1453:
  3444     052A  1FD7               	btfss	___fladd@grs,7
  3445     052B  2D2D               	goto	u1611
  3446     052C  2D2E               	goto	u1610
  3447     052D                     u1611:
  3448     052D  2D2F               	goto	l525
  3449     052E                     u1610:
  3450     052E                     l1455:
  3451     052E  1444               	bsf	___fladd@b,0
  3452     052F                     l525:
  3453     052F  1C57               	btfss	___fladd@grs,0
  3454     0530  2D32               	goto	u1621
  3455     0531  2D33               	goto	u1620
  3456     0532                     u1621:
  3457     0532  2D36               	goto	l1459
  3458     0533                     u1620:
  3459     0533                     l1457:
  3460     0533  1403               	setc
  3461     0534  0DD7               	rlf	___fladd@grs,f
  3462     0535  2D38               	goto	l1461
  3463     0536                     l1459:
  3464     0536  1003               	clrc
  3465     0537  0DD7               	rlf	___fladd@grs,f
  3466     0538                     l1461:
  3467     0538  0856               	movf	___fladd@bexp,w
  3468     0539  1903               	btfsc	3,2
  3469     053A  2D3C               	goto	u1631
  3470     053B  2D3D               	goto	u1630
  3471     053C                     u1631:
  3472     053C  2D3F               	goto	l1465
  3473     053D                     u1630:
  3474     053D                     l1463:
  3475     053D  3001               	movlw	1
  3476     053E  02D6               	subwf	___fladd@bexp,f
  3477     053F                     l1465:
  3478     053F  1FC6               	btfss	___fladd@b+2,7
  3479     0540  2D42               	goto	u1641
  3480     0541  2D43               	goto	u1640
  3481     0542                     u1641:
  3482     0542  2D21               	goto	l1451
  3483     0543                     u1640:
  3484     0543                     l1467:
  3485     0543  01D5               	clrf	___fladd@aexp
  3486     0544                     l1469:
  3487     0544  1FD7               	btfss	___fladd@grs,7
  3488     0545  2D47               	goto	u1651
  3489     0546  2D48               	goto	u1650
  3490     0547                     u1651:
  3491     0547  2D56               	goto	l1477
  3492     0548                     u1650:
  3493     0548                     l1471:
  3494     0548  0857               	movf	___fladd@grs,w
  3495     0549  397F               	andlw	127
  3496     054A  1903               	btfsc	3,2
  3497     054B  2D4D               	goto	u1661
  3498     054C  2D4E               	goto	u1660
  3499     054D                     u1661:
  3500     054D  2D51               	goto	l531
  3501     054E                     u1660:
  3502     054E                     l1473:
  3503     054E  01D5               	clrf	___fladd@aexp
  3504     054F  0AD5               	incf	___fladd@aexp,f
  3505     0550  2D56               	goto	l1477
  3506     0551                     l531:
  3507     0551  1C44               	btfss	___fladd@b,0
  3508     0552  2D54               	goto	u1671
  3509     0553  2D55               	goto	u1670
  3510     0554                     u1671:
  3511     0554  2D56               	goto	l1477
  3512     0555                     u1670:
  3513     0555  2D4E               	goto	l1473
  3514     0556                     l1477:
  3515     0556  0855               	movf	___fladd@aexp,w
  3516     0557  1903               	btfsc	3,2
  3517     0558  2D5A               	goto	u1681
  3518     0559  2D5B               	goto	u1680
  3519     055A                     u1681:
  3520     055A  2D8F               	goto	l534
  3521     055B                     u1680:
  3522     055B                     l1479:
  3523     055B  3001               	movlw	1
  3524     055C  07C4               	addwf	___fladd@b,f
  3525     055D  3000               	movlw	0
  3526     055E  1803               	skipnc
  3527     055F  3001               	movlw	1
  3528     0560  07C5               	addwf	___fladd@b+1,f
  3529     0561  3000               	movlw	0
  3530     0562  1803               	skipnc
  3531     0563  3001               	movlw	1
  3532     0564  07C6               	addwf	___fladd@b+2,f
  3533     0565  3000               	movlw	0
  3534     0566  1803               	skipnc
  3535     0567  3001               	movlw	1
  3536     0568  07C7               	addwf	___fladd@b+3,f
  3537     0569                     l1481:
  3538     0569  1C47               	btfss	___fladd@b+3,0
  3539     056A  2D6C               	goto	u1691
  3540     056B  2D6D               	goto	u1690
  3541     056C                     u1691:
  3542     056C  2D8F               	goto	l534
  3543     056D                     u1690:
  3544     056D                     l1483:
  3545     056D  0844               	movf	___fladd@b,w
  3546     056E  00CC               	movwf	??___fladd
  3547     056F  0845               	movf	___fladd@b+1,w
  3548     0570  00CD               	movwf	??___fladd+1
  3549     0571  0846               	movf	___fladd@b+2,w
  3550     0572  00CE               	movwf	??___fladd+2
  3551     0573  0847               	movf	___fladd@b+3,w
  3552     0574  00CF               	movwf	??___fladd+3
  3553     0575  3001               	movlw	1
  3554     0576  00D0               	movwf	??___fladd+4
  3555     0577                     u1705:
  3556     0577  0D4F               	rlf	??___fladd+3,w
  3557     0578  0CCF               	rrf	??___fladd+3,f
  3558     0579  0CCE               	rrf	??___fladd+2,f
  3559     057A  0CCD               	rrf	??___fladd+1,f
  3560     057B  0CCC               	rrf	??___fladd,f
  3561     057C                     u1700:
  3562     057C  0BD0               	decfsz	??___fladd+4,f
  3563     057D  2D77               	goto	u1705
  3564     057E  084F               	movf	??___fladd+3,w
  3565     057F  00C7               	movwf	___fladd@b+3
  3566     0580  084E               	movf	??___fladd+2,w
  3567     0581  00C6               	movwf	___fladd@b+2
  3568     0582  084D               	movf	??___fladd+1,w
  3569     0583  00C5               	movwf	___fladd@b+1
  3570     0584  084C               	movf	??___fladd,w
  3571     0585  00C4               	movwf	___fladd@b
  3572     0586  0A56               	incf	___fladd@bexp,w
  3573     0587  1903               	btfsc	3,2
  3574     0588  2D8A               	goto	u1711
  3575     0589  2D8B               	goto	u1710
  3576     058A                     u1711:
  3577     058A  2D8F               	goto	l534
  3578     058B                     u1710:
  3579     058B                     l1485:
  3580     058B  3001               	movlw	1
  3581     058C  00CC               	movwf	??___fladd
  3582     058D  084C               	movf	??___fladd,w
  3583     058E  07D6               	addwf	___fladd@bexp,f
  3584     058F                     l534:
  3585     058F  0A56               	incf	___fladd@bexp,w
  3586     0590  1903               	btfsc	3,2
  3587     0591  2D93               	goto	u1721
  3588     0592  2D94               	goto	u1720
  3589     0593                     u1721:
  3590     0593  2D99               	goto	l1489
  3591     0594                     u1720:
  3592     0594                     l1487:
  3593     0594  0856               	movf	___fladd@bexp,w
  3594     0595  1D03               	btfss	3,2
  3595     0596  2D98               	goto	u1731
  3596     0597  2D99               	goto	u1730
  3597     0598                     u1731:
  3598     0598  2DA7               	goto	l1495
  3599     0599                     u1730:
  3600     0599                     l1489:
  3601     0599  3000               	movlw	0
  3602     059A  00C7               	movwf	___fladd@b+3
  3603     059B  3000               	movlw	0
  3604     059C  00C6               	movwf	___fladd@b+2
  3605     059D  3000               	movlw	0
  3606     059E  00C5               	movwf	___fladd@b+1
  3607     059F  3000               	movlw	0
  3608     05A0  00C4               	movwf	___fladd@b
  3609     05A1                     l1491:
  3610     05A1  0856               	movf	___fladd@bexp,w
  3611     05A2  1D03               	btfss	3,2
  3612     05A3  2DA5               	goto	u1741
  3613     05A4  2DA6               	goto	u1740
  3614     05A5                     u1741:
  3615     05A5  2DA7               	goto	l1495
  3616     05A6                     u1740:
  3617     05A6                     l1493:
  3618     05A6  01D4               	clrf	___fladd@signs
  3619     05A7                     l1495:
  3620     05A7  1C56               	btfss	___fladd@bexp,0
  3621     05A8  2DAA               	goto	u1751
  3622     05A9  2DAB               	goto	u1750
  3623     05AA                     u1751:
  3624     05AA  2DAD               	goto	l1499
  3625     05AB                     u1750:
  3626     05AB                     l1497:
  3627     05AB  17C6               	bsf	___fladd@b+2,7
  3628     05AC  2DB1               	goto	l542
  3629     05AD                     l1499:
  3630     05AD  307F               	movlw	127
  3631     05AE  00CC               	movwf	??___fladd
  3632     05AF  084C               	movf	??___fladd,w
  3633     05B0  05C6               	andwf	___fladd@b+2,f
  3634     05B1                     l542:
  3635     05B1  0856               	movf	___fladd@bexp,w
  3636     05B2  00CC               	movwf	??___fladd
  3637     05B3  1003               	clrc
  3638     05B4  0C4C               	rrf	??___fladd,w
  3639     05B5  00C7               	movwf	___fladd@b+3
  3640     05B6                     l1501:
  3641     05B6  1FD4               	btfss	___fladd@signs,7
  3642     05B7  2DB9               	goto	u1761
  3643     05B8  2DBA               	goto	u1760
  3644     05B9                     u1761:
  3645     05B9  2DBB               	goto	l543
  3646     05BA                     u1760:
  3647     05BA                     l1503:
  3648     05BA  17C7               	bsf	___fladd@b+3,7
  3649     05BB                     l543:
  3650     05BB                     l513:
  3651     05BB  0008               	return
  3652     05BC                     __end_of___fladd:
  3653                           
  3654                           	psect	text10
  3655     0FD2                     __ptext10:	
  3656 ;; *************** function _isr *****************
  3657 ;; Defined at:
  3658 ;;		line 53 in file "main.c"
  3659 ;; Parameters:    Size  Location     Type
  3660 ;;		None
  3661 ;; Auto vars:     Size  Location     Type
  3662 ;;		None
  3663 ;; Return value:  Size  Location     Type
  3664 ;;                  1    wreg      void 
  3665 ;; Registers used:
  3666 ;;		wreg, status,2, status,0
  3667 ;; Tracked objects:
  3668 ;;		On entry : 0/0
  3669 ;;		On exit  : 0/0
  3670 ;;		Unchanged: 0/0
  3671 ;; Data sizes:     COMMON   BANK0   BANK1   BANK3   BANK2
  3672 ;;      Params:         0       0       0       0       0
  3673 ;;      Locals:         0       0       0       0       0
  3674 ;;      Temps:          3       0       0       0       0
  3675 ;;      Totals:         3       0       0       0       0
  3676 ;;Total ram usage:        3 bytes
  3677 ;; Hardware stack levels used: 1
  3678 ;; This function calls:
  3679 ;;		Nothing
  3680 ;; This function is called by:
  3681 ;;		Interrupt level 1
  3682 ;; This function uses a non-reentrant model
  3683 ;;
  3684                           
  3685     0FD2                     _isr:	
  3686                           ;psect for function _isr
  3687                           
  3688     0FD2                     i1l1755:
  3689                           
  3690                           ;main.c: 55:     if (PIR1bits.ADIF){
  3691     0FD2  1283               	bcf	3,5	;RP0=0, select bank0
  3692     0FD3  1303               	bcf	3,6	;RP1=0, select bank0
  3693     0FD4  1F0C               	btfss	12,6	;volatile
  3694     0FD5  2FD7               	goto	u229_21
  3695     0FD6  2FD8               	goto	u229_20
  3696     0FD7                     u229_21:
  3697     0FD7  2FDA               	goto	i1l85
  3698     0FD8                     u229_20:
  3699     0FD8                     i1l1757:
  3700                           
  3701                           ;main.c: 56:         PORTBbits.RB7=1;
  3702     0FD8  1786               	bsf	6,7	;volatile
  3703                           
  3704                           ;main.c: 57:         PIR1bits.ADIF=0;
  3705     0FD9  130C               	bcf	12,6	;volatile
  3706     0FDA                     i1l85:	
  3707                           ;main.c: 58:     }
  3708                           
  3709                           
  3710                           ;main.c: 59:     if (INTCONbits.T0IF){
  3711     0FDA  1D0B               	btfss	11,2	;volatile
  3712     0FDB  2FDD               	goto	u230_21
  3713     0FDC  2FDE               	goto	u230_20
  3714     0FDD                     u230_21:
  3715     0FDD  2FF9               	goto	i1l89
  3716     0FDE                     u230_20:
  3717     0FDE                     i1l1759:
  3718                           
  3719                           ;main.c: 60:         contador++;
  3720     0FDE  3001               	movlw	1
  3721     0FDF  00F0               	movwf	??_isr
  3722     0FE0  0870               	movf	??_isr,w
  3723     0FE1  07EC               	addwf	_contador,f
  3724     0FE2                     i1l1761:
  3725                           
  3726                           ;main.c: 61:         if (contador <= ADC_Voltaje3){
  3727     0FE2  0865               	movf	_ADC_Voltaje3+1,w
  3728     0FE3  3A80               	xorlw	128
  3729     0FE4  00F0               	movwf	??_isr
  3730     0FE5  3080               	movlw	128
  3731     0FE6  0270               	subwf	??_isr,w
  3732     0FE7  1D03               	skipz
  3733     0FE8  2FEB               	goto	u231_25
  3734     0FE9  086C               	movf	_contador,w
  3735     0FEA  0264               	subwf	_ADC_Voltaje3,w
  3736     0FEB                     u231_25:
  3737     0FEB  1C03               	skipc
  3738     0FEC  2FEE               	goto	u231_21
  3739     0FED  2FEF               	goto	u231_20
  3740     0FEE                     u231_21:
  3741     0FEE  2FF3               	goto	i1l87
  3742     0FEF                     u231_20:
  3743     0FEF                     i1l1763:
  3744                           
  3745                           ;main.c: 62:             PORTAbits.RA7 = 1;
  3746     0FEF  1283               	bcf	3,5	;RP0=0, select bank0
  3747     0FF0  1303               	bcf	3,6	;RP1=0, select bank0
  3748     0FF1  1785               	bsf	5,7	;volatile
  3749                           
  3750                           ;main.c: 63:         }
  3751     0FF2  2FF6               	goto	i1l1765
  3752     0FF3                     i1l87:	
  3753                           ;main.c: 64:         else{
  3754                           
  3755                           
  3756                           ;main.c: 65:             PORTAbits.RA7 = 0;
  3757     0FF3  1283               	bcf	3,5	;RP0=0, select bank0
  3758     0FF4  1303               	bcf	3,6	;RP1=0, select bank0
  3759     0FF5  1385               	bcf	5,7	;volatile
  3760     0FF6                     i1l1765:
  3761                           
  3762                           ;main.c: 67:         TMR0 = 240;
  3763     0FF6  30F0               	movlw	240
  3764     0FF7  0081               	movwf	1	;volatile
  3765     0FF8                     i1l1767:
  3766                           
  3767                           ;main.c: 68:         INTCONbits.T0IF = 0;
  3768     0FF8  110B               	bcf	11,2	;volatile
  3769     0FF9                     i1l89:
  3770     0FF9  0872               	movf	??_isr+2,w
  3771     0FFA  008A               	movwf	10
  3772     0FFB  0E71               	swapf	??_isr+1,w
  3773     0FFC  0083               	movwf	3
  3774     0FFD  0EFE               	swapf	btemp,f
  3775     0FFE  0E7E               	swapf	btemp,w
  3776     0FFF  0009               	retfie
  3777     1000                     __end_of_isr:
  3778     007E                     btemp	set	126	;btemp
  3779     007E                     wtemp0	set	126
  3780                           
  3781                           	psect	intentry
  3782     0004                     __pintentry:	
  3783                           ;incstack = 0
  3784                           ; Regs used in _isr: [wreg+status,2+status,0]
  3785                           
  3786     0004                     interrupt_function:
  3787     007E                     saved_w	set	btemp
  3788     0004  00FE               	movwf	btemp
  3789     0005  0E03               	swapf	3,w
  3790     0006  00F1               	movwf	??_isr+1
  3791     0007  080A               	movf	10,w
  3792     0008  00F2               	movwf	??_isr+2
  3793     0009  120A  158A  2FD2   	ljmp	_isr
  3794                           
  3795                           	psect	idloc
  3796                           
  3797                           ;Config register IDLOC0 @ 0x2000
  3798                           ;	unspecified, using default values
  3799     2000                     	org	8192
  3800     2000  3FFF               	dw	16383
  3801                           
  3802                           ;Config register IDLOC1 @ 0x2001
  3803                           ;	unspecified, using default values
  3804     2001                     	org	8193
  3805     2001  3FFF               	dw	16383
  3806                           
  3807                           ;Config register IDLOC2 @ 0x2002
  3808                           ;	unspecified, using default values
  3809     2002                     	org	8194
  3810     2002  3FFF               	dw	16383
  3811                           
  3812                           ;Config register IDLOC3 @ 0x2003
  3813                           ;	unspecified, using default values
  3814     2003                     	org	8195
  3815     2003  3FFF               	dw	16383
  3816                           
  3817                           	psect	config
  3818                           
  3819                           ;Config register CONFIG1 @ 0x2007
  3820                           ;	Oscillator Selection bits
  3821                           ;	FOSC = INTRC_NOCLKOUT, INTOSCIO oscillator: I/O function on RA6/OSC2/CLKOUT pin, I/O f
      +                          unction on RA7/OSC1/CLKIN
  3822                           ;	Watchdog Timer Enable bit
  3823                           ;	WDTE = OFF, WDT disabled and can be enabled by SWDTEN bit of the WDTCON register
  3824                           ;	Power-up Timer Enable bit
  3825                           ;	PWRTE = OFF, PWRT disabled
  3826                           ;	RE3/MCLR pin function select bit
  3827                           ;	MCLRE = OFF, RE3/MCLR pin function is digital input, MCLR internally tied to VDD
  3828                           ;	Code Protection bit
  3829                           ;	CP = OFF, Program memory code protection is disabled
  3830                           ;	Data Code Protection bit
  3831                           ;	CPD = OFF, Data memory code protection is disabled
  3832                           ;	Brown Out Reset Selection bits
  3833                           ;	BOREN = OFF, BOR disabled
  3834                           ;	Internal External Switchover bit
  3835                           ;	IESO = OFF, Internal/External Switchover mode is disabled
  3836                           ;	Fail-Safe Clock Monitor Enabled bit
  3837                           ;	FCMEN = OFF, Fail-Safe Clock Monitor is disabled
  3838                           ;	Low Voltage Programming Enable bit
  3839                           ;	LVP = OFF, RB3 pin has digital I/O, HV on MCLR must be used for programming
  3840                           ;	In-Circuit Debugger Mode bit
  3841                           ;	DEBUG = 0x1, unprogramme  3842     2007                     	org	8199
  3843     2007  20D4               	dw	8404
  3844                           
  3845                           ;Config register CONFIG2 @ 0x2008
  3846                           ;	Brown-out Reset Selection bit
  3847                           ;	BOR4V = BOR40V, Brown-out Reset set to 4.0V
  3848                           ;	Flash Program Memory Self Write Enable bits
  3849                           ;	WRT = OFF, Write protection off
  3850     2008                     	org	8200
  3851     2008  3FFF               	dw	16383

Data Sizes:
    Strings     0
    Constant    0
    Data        0
    BSS         10
    Persistent  0
    Stack       0

Auto Spaces:
    Space          Size  Autos    Used
    COMMON           14      9      10
    BANK0            80     68      77
    BANK1            80      0       0
    BANK3            96      0       0
    BANK2            96      0       0

Pointer List with Targets:

    None.

Critical Paths under _main in COMMON

    _conversion->___fltol
    ___fltol->___xxtofl
    ___flmul->__Umul8_16
    ___flmul->___xxtofl
    ___fladd->___xxtofl

Critical Paths under _isr in COMMON

    None.

Critical Paths under _main in BANK0

    _main->_conversion
    _conversion->___fltol
    ___fltol->___fladd
    ___flmul->___xxtofl
    ___fladd->___flmul

Critical Paths under _isr in BANK0

    None.

Critical Paths under _main in BANK1

    None.

Critical Paths under _isr in BANK1

    None.

Critical Paths under _main in BANK3

    None.

Critical Paths under _isr in BANK3

    None.

Critical Paths under _main in BANK2

    None.

Critical Paths under _isr in BANK2

    None.

Call Graph Tables:

 ---------------------------------------------------------------------------------
 (Depth) Function   	        Calls       Base Space   Used Autos Params    Refs
 ---------------------------------------------------------------------------------
 (0) _main                                                 2     2      0    5883
                                             66 BANK0      2     2      0
                         _conversion
                              _setup
                           _setupADC
                           _setupPWM
 ---------------------------------------------------------------------------------
 (1) _setupPWM                                             0     0      0       0
 ---------------------------------------------------------------------------------
 (1) _setupADC                                             1     1      0       0
                                              3 COMMON     1     1      0
 ---------------------------------------------------------------------------------
 (1) _setup                                                0     0      0       0
 ---------------------------------------------------------------------------------
 (1) _conversion                                           2     0      2    5883
                                             64 BANK0      2     0      2
                            ___fladd
                            ___flmul
                            ___fltol
                           ___xxtofl
 ---------------------------------------------------------------------------------
 (2) ___xxtofl                                            14    10      4     566
                                              3 COMMON     4     0      4
                                              0 BANK0     10    10      0
 ---------------------------------------------------------------------------------
 (2) ___fltol                                             10     6      4     427
                                              7 COMMON     2     2      0
                                             56 BANK0      8     4      4
                            ___fladd (ARG)
                            ___flmul (ARG)
                           ___xxtofl (ARG)
 ---------------------------------------------------------------------------------
 (2) ___flmul                                             26    18      8    2417
                                             10 BANK0     26    18      8
                          __Umul8_16
                           ___xxtofl (ARG)
 ---------------------------------------------------------------------------------
 (3) __Umul8_16                                            9     7      2     799
                                              3 COMMON     4     2      2
                                              0 BANK0      5     5      0
 ---------------------------------------------------------------------------------
 (2) ___fladd                                             20    12      8    2262
                                             36 BANK0     20    12      8
                            ___flmul (ARG)
                           ___xxtofl (ARG)
 ---------------------------------------------------------------------------------
 Estimated maximum stack depth 3
 ---------------------------------------------------------------------------------
 (Depth) Function   	        Calls       Base Space   Used Autos Params    Refs
 ---------------------------------------------------------------------------------
 (4) _isr                                                  3     3      0       0
                                              0 COMMON     3     3      0
 ---------------------------------------------------------------------------------
 Estimated maximum stack depth 4
 ---------------------------------------------------------------------------------

 Call Graph Graphs:

 _main (ROOT)
   _conversion
     ___fladd
       ___flmul (ARG)
         __Umul8_16
         ___xxtofl (ARG)
       ___xxtofl (ARG)
     ___flmul
     ___fltol
       ___fladd (ARG)
       ___flmul (ARG)
       ___xxtofl (ARG)
     ___xxtofl
   _setup
   _setupADC
   _setupPWM

 _isr (ROOT)

 Address spaces:
Name               Size   Autos  Total    Cost      Usage
BITCOMMON            E      0       0       0        0.0%
EEDATA             100      0       0       0        0.0%
NULL                 0      0       0       0        0.0%
CODE                 0      0       0       0        0.0%
COMMON               E      9       A       1       71.4%
BITSFR0              0      0       0       1        0.0%
SFR0                 0      0       0       1        0.0%
BITSFR1              0      0       0       2        0.0%
SFR1                 0      0       0       2        0.0%
STACK                0      0       0       2        0.0%
ABS                  0      0      57       3        0.0%
BITBANK0            50      0       0       4        0.0%
BITSFR3              0      0       0       4        0.0%
SFR3                 0      0       0       4        0.0%
BANK0               50     44      4D       5       96.2%
BITSFR2              0      0       0       5        0.0%
SFR2                 0      0       0       5        0.0%
BITBANK1            50      0       0       6        0.0%
BANK1               50      0       0       7        0.0%
BITBANK3            60      0       0       8        0.0%
BANK3               60      0       0       9        0.0%
BITBANK2            60      0       0      10        0.0%
BANK2               60      0       0      11        0.0%
DATA                 0      0      57      12        0.0%


Microchip Technology PIC Macro Assembler V2.40 build 20220703182018 
Symbol Table                                                                                   Tue Oct 18 07:56:56 2022

                      _i 0079                       l95 0697                       l98 06C4  
    __Umul8_16@word_mpld 0022                      l101 06F1                      l112 07FE  
                    l121 0FD1                      l115 0F76                      l109 07D2  
                    l117 0F7A                      l118 0F7E                      l400 0768  
                    l403 077D                      l500 03BF                      l504 0442  
                    l521 050B                      l513 05BB                      l506 041B  
                    l602 02D3                      l531 0551                      l525 052F  
                    l542 05B1                      l534 058F                      l543 05BB  
                    l615 0F95                      l608 0357                      l640 05E0  
                    l617 0FA7                      l393 077D                      l642 0675  
                    l653 063F                      l654 064B                      l646 0623  
                    l596 0363                      _PR2 0092                      _isr 0FD2  
           ___flmul@aexp 003C             ___flmul@bexp 003D             ___flmul@sign 0037  
           ___flmul@temp 0042             ___flmul@prod 003E             ___fltol@exp1 0078  
                   l1311 0364                     l1401 042C                     l1321 0377  
                   l1313 0369                     l1411 044B                     l1403 042D  
                   l1331 038F                     l1323 037C                     l1315 036D  
                   l1501 05B6                     l1421 0473                     l1405 0436  
                   l1341 03A1                     l1333 0392                     l1325 0384  
                   l1317 0371                     l1261 0F82                     l1503 05BA  
                   l1431 048A                     l1423 047A                     l1415 0454  
                   l1407 043A                     l1351 03B5                     l1343 03A2  
                   l1335 0398                     l1327 0385                     l1319 0372  
                   l1271 0FA3                     l1263 0F84                     l1511 002C  
                   l1441 04EE                     l1425 047C                     l1417 046B  
                   l1409 0446                     l1433 048F                     l1361 03CF  
                   l1345 03A7                     l1353 03B7                     l1337 0399  
                   l1329 0387                     l1265 0F8B                     l1601 02B3  
                   l1521 0041                     l1513 002D                     l1505 001F  
                   l1451 0521                     l1435 04A5                     l1443 04FD  
                   l1427 0480                     l1419 046F                     l1371 03D9  
                   l1363 03D1                     l1355 03C5                     l1347 03AC  
                   l1339 039D                     l1267 0F8F                     l1603 02B7  
                   l1531 0057                     l1523 0049                     l1515 0032  
                   l1507 0024                     l1461 0538                     l1453 052A  
                   l1445 0513                     l1437 04E3                     l1429 0481  
                   l1381 03E3                     l1373 03DB                     l1365 03D3  
                   l1357 03C9                     l1349 03B4                     l1269 0F9E  
                   l1621 0308                     l1613 02D8                     l1605 02B8  
                   l1541 0073                     l1533 005C                     l1525 004E  
                   l1517 0037                     l1509 0028                     l1701 07EC  
                   l1471 0548                     l1463 053D                     l1455 052E  
                   l1447 0518                     l1439 04E9                     l1391 03EC  
                   l1383 03E5                     l1375 03DD                     l1367 03D5  
                   l1359 03CD                     l1631 033F                     l1615 02DD  
                   l1623 030E                     l1607 02BC                     l1551 0094  
                   l1543 0078                     l1535 0061                     l1527 0052  
                   l1519 003F                     l1711 07F5                     l1703 07ED  
                   l1481 0569                     l1473 054E                     l1457 0533  
                   l1465 053F                     l1393 0403                     l1385 03E7  
                   l1377 03DF                     l1369 03D7                     l1641 035B  
                   l1633 0341                     l1625 031B                     l1617 02EB  
                   l1609 02D0                     l1561 011E                     l1553 00A1  
                   l1545 007D                     l1537 0069                     l1529 0056  
                   l1713 07F6                     l1705 07EE                     l1721 0FC0  
                   l1491 05A1                     l1483 056D                     l1459 0536  
                   l1467 0543                     l1395 041F                     l1387 03E9  
                   l1379 03E1                     l1635 034D                     l1627 0326  
                   l1619 02EF                     l1571 017C                     l1563 013A  
                   l1555 00BC                     l1539 006B                     l1811 0711  
                   l1715 07FA                     l1707 07F1                     l1723 0FC3  
                   l1731 0F5A                     l1493 05A6                     l1485 058B  
                   l1477 0556                     l1469 0544                     l1397 0426  
                   l1389 03EB                     l1637 0351                     l1629 0335  
                   l1581 0206                     l1573 0199                     l1565 0143  
                   l1557 00D8                     l1549 0086                     l1821 0736  
                   l1709 07F2                     l1725 0FC4                     l1717 0FA8  
                   l1741 0F6A                     l1733 0F5E                     l1901 069B  
                   l1495 05A7                     l1487 0594                     l1479 055B  
                   l1399 0428                     l1639 0352                     l1591 0296  
                   l1583 0231                     l1575 01B0                     l1567 0151  
                   l1559 0102                     l1831 0744                     l1823 0738  
                   l1815 071A                     l1727 0FCB                     l1719 0FBA  
                   l1751 0F75                     l1743 0F6E                     l1735 0F60  
                   l1911 06BB                     l1903 06A2                     l1497 05AB  
                   l1489 0599                     l1593 029F                     l1585 0257  
                   l1577 01CD                     l1569 016E                     l1841 076D  
                   l1825 073C                     l1833 0756                     l1817 072D  
                   l1809 0706                     l1729 0FCC                     l1745 0F6F  
                   l1737 0F64                     l1921 06DC                     l1913 06C1  
                   l1905 06AB                     l1499 05AD                     l1595 02A3  
                   l1587 027F                     l1579 01F8                     l1843 0772  
                   l1819 072E                     l1851 05D8                     l1691 07D6  
                   l1747 0F72                     l1739 0F68                     l1923 06E2  
                   l1915 06C8                     l1907 06AF                     l1597 02A4  
                   l1589 0288                     l1861 0601                     l1853 05E8  
                   l1845 05BF                     l1693 07DD                     l1749 0F73  
                   l1925 06E8                     l1917 06CF                     l1909 06B5  
                   l1599 02AD                     l1839 075D                     l1871 0635  
                   l1863 0608                     l1847 05C4                     l1695 07E4  
                   l1927 06EE                     l1919 06D8                     l1881 0668  
                   l1873 0639                     l1865 060C                     l1857 05F1  
                   l1849 05C8                     l1697 07EA                     l1689 07D3  
                   l1929 06F5                     l1883 066C                     l1875 0643  
                   l1867 061A                     l1859 05F4                     l1699 07EB  
                   l1891 0676                     l1885 066D                     l1877 064D  
                   l1869 062A                     l1893 0685                     l1879 0663  
                   l1895 0688                     l1889 077E                     l1897 068E  
                   l1899 0694                     ?_isr 0070                     u1200 0FA3  
                   u1201 0FA2                     u2100 02FE                     u2020 02A3  
                   u2021 02A2                     u2005 0281                     u1310 0371  
                   u2110 031B                     u1311 0370                     u2111 031A  
                   u2015 0298                     u1400 0403                     u1320 0377  
                   u2120 0335                     u2040 02B7                     u1401 0402  
                   u1321 0376                     u2121 0334                     u2105 02F9  
                   u2041 02B6                     u1410 040E                     u1330 037C  
                   u2130 0351                     u2050 02BC                     u1411 040C  
                   u1331 037B                     u2131 0350                     u2115 0317  
                   u2051 02BB                     u2035 02A6                     u1500 046F  
                   u1420 040F                     u1340 0398                     u1180 0F8F  
                   u2060 02D0                     u1501 046E                     u1405 03FF  
                   u1341 0397                     u1181 0F8E                     u2125 0331  
                   u2061 02CF                     u1510 0473                     u1430 041F  
                   u1350 03A1                     u2070 02D7                     u1511 0472  
                   u1431 041E                     u1351 03A0                     u2071 02D6  
                   u1520 0480                     u1440 042C                     u1360 03A7  
                   u2080 02DD                     u2400 0755                     u1521 047F  
                   u1441 042B                     u1361 03A6                     u2081 02DC  
                   u2401 0754                     u1610 052E                     u1370 03AC  
                   u2090 02EF                     u2410 075C                     u1611 052D  
                   u1371 03AB                     u1195 0F96                     u2091 02EE  
                   u2411 075B                     u1700 057C                     u1620 0533  
                   u1540 04A5                     u1460 0442                     u1380 03C5  
                   u1621 0532                     u1605 0523                     u1541 04A4  
                   u1461 0441                     u1381 03C4                     u1710 058B  
                   u1630 053D                     u1470 0446                     u1390 03C9  
                   u2430 076D                     u2350 0711                     u2510 0629  
                   u1711 058A                     u1631 053C                     u1551 04BC  
                   u1543 04A1                     u1535 0483                     u1471 0445  
                   u1455 042F                     u1391 03C8                     u2431 076C  
                   u2351 0710                     u2511 0628                     u1720 0594  
                   u1640 0543                     u1560 04D0                     u1552 04BD  
                   u1480 044B                     u1800 0056                     u2440 0772  
                   u2360 0728                     u2280 0F7A                     u2600 06C8  
                   u1721 0593                     u1705 0577                     u1641 0542  
                   u1561 04D1                     u1553 04C2                     u1481 044A  
                   u1801 0055                     u2441 0771                     u2425 075F  
                   u2505 061B                     u2281 0F79                     u2601 06C7  
                   u1730 0599                     u1650 0548                     u1570 04EE  
                   u1562 04D6                     u1554 04C3                     u1810 005C  
                   u2370 073C                     u2530 0639                     u2450 05C4  
                   u2610 06F5                     u1731 0598                     u1651 0547  
                   u1571 04ED                     u1563 04D7                     u1555 04C8  
                   u1491 045D                     u1811 005B                     u2371 073B  
                   u2531 0638                     u2451 05C3                     u2611 06F4  
                   u1740 05A6                     u1660 054E                     u1580 0513  
                   u1556 04C9                     u1492 0464                     u1820 0061  
                   u2380 0743                     u2540 063F                     u2460 05C8  
                   u1741 05A5                     u1661 054D                     u1581 0512  
                   u1493 046B                     u1901 0160                     u1821 0060  
                   u2381 0742                     u2365 0723                     u2541 063E  
                   u2525 062E                     u2461 05C7                     u1750 05AB  
                   u1670 0555                     u1590 0518                     u1902 0167  
                   u1830 0078                     u2550 0643                     u2470 05E8  
                   u1751 05AA                     u1671 0554                     u1591 0517  
                   u1911 018B                     u1903 016E                     u1831 0077  
                   u2551 0642                     u2471 05E7                     u1760 05BA  
                   u1680 055B                     u1912 0192                     u1840 007D  
                   u2560 0658                     u1761 05B9                     u1681 055A  
                   u1913 0199                     u1841 007C                     u1690 056D  
                   u1770 002C                     u2570 0668                     u2490 0607  
                   u1691 056C                     u1931 01BF                     u1851 00CA  
                   u1771 002B                     u2395 0745                     u2571 0667  
                   u2491 0606                     u2627 0692                     u1932 01C6  
                   u1852 00D1                     u1780 0032                     u2580 066C  
                   u1941 01EA                     u1933 01CD                     u1925 019B  
                   u1861 00E6                     u1853 00D8                     u1781 0031  
                   u2581 066B                     u2565 0653                     u2485 05F9  
                   u2637 06B3                     u1942 01F1                     u1862 00ED  
                   u1790 0037                     u2590 069B                     u1951 0215  
                   u1943 01F8                     u1871 0110                     u1863 00F4  
                   u1791 0036                     u2647 06BF                     u2591 069A  
                   u1960 023D                     u1952 021C                     u1872 0117  
                   u1953 0223                     u1881 012C                     u1873 011E  
                   u2657 06E0                     u1882 0133                     u1971 0249  
                   u1883 013A                     u2667 06EC                     u1980 0265  
                   u1972 0250                     u1973 0257                     u1965 0238  
                   u2677 0700                     u1991 0271                     u1895 013C  
                   u2687 0FCE                     u1992 0278                     u1993 027F  
                   u1985 0260                     i1l85 0FDA                     i1l87 0FF3  
                   i1l89 0FF9                     _TMR0 0001                     _main 0676  
                   btemp 007E                     start 000C                    ??_isr 0070  
          ___fltol@sign1 0077          __end_of___fladd 05BC                    ?_main 0070  
        __end_of___flmul 0364          __end_of___fltol 077E                    _PORTB 0006  
                  _PORTC 0007                    _PORTD 0008                    _PORTE 0009  
                  _TRISB 0086                    _TRISC 0087                    _TRISD 0088  
                  _TRISE 0089                    _setup 07D3                    pclath 000A  
                  status 0003                    wtemp0 007E          __initialization 000F  
           __end_of_main 0706        conversion@voltaje 0060                   ??_main 0062  
           _ADC_Voltaje1 0068             _ADC_Voltaje2 0066             _ADC_Voltaje3 0064  
                 _ADRESH 001E                   _CCPR1L 0015                   _CCPR2L 001B  
                 ?_setup 0070                   _ANSELH 0189                   i1l1761 0FE2  
                 i1l1763 0FEF                   i1l1755 0FD2                   i1l1765 0FF6  
                 i1l1757 0FD8                   i1l1767 0FF8                   i1l1759 0FDE  
                 u230_20 0FDE                   u230_21 0FDD                   u231_20 0FEF  
                 u231_21 0FEE                   u231_25 0FEB                   u229_20 0FD8  
                 u229_21 0FD7         __end_of___xxtofl 0676                ??___fladd 004C  
              ??___flmul 0032                ??___fltol 005C         __end_of_setupADC 0FD2  
       __end_of_setupPWM 0F7F                   saved_w 007E             ___xxtofl@arg 0026  
           ___xxtofl@exp 0025             ___xxtofl@val 0073  __end_of__initialization 001B  
             ___fltol@f1 0058           __pcstackCOMMON 0070            __end_of_setup 07FF  
         _OPTION_REGbits 0081                  ??_setup 0073               __pbssBANK0 0064  
      __end_of__Umul8_16 0FA8               __pmaintext 0676               __pintentry 0004  
              ?___xxtofl 0073               _conversion 077E                ?_setupADC 0070  
              ?_setupPWM 0070                  ___fladd 0364                  ___flmul 001F  
                ___fltol 0706                _ANSELbits 0188               _equivalent 006A  
                __ptext1 0F5A                  __ptext2 0FA8                  __ptext3 07D3  
                __ptext4 077E                  __ptext5 05BC                  __ptext6 0706  
                __ptext7 001F                  __ptext8 0F7F                  __ptext9 0364  
              _T2CONbits 0012               ??___xxtofl 0020     end_of_initialization 001B  
             ??_setupADC 0073               ??_setupPWM 0073                _PORTAbits 0005  
              _PORTBbits 0006              ___fladd@grs 0057            ___xxtofl@sign 0024  
              _TRISAbits 0085                _TRISCbits 0087              ___flmul@grs 0038  
            ?_conversion 0060              _CCP1CONbits 0017              _CCP2CONbits 001D  
    start_initialization 000F              __end_of_isr 1000                __Umul8_16 0F7F  
              ___fladd@a 0048                ___fladd@b 0044                ___flmul@a 002E  
              ___flmul@b 002A              __pbssCOMMON 0079                ___latbits 0002  
          __pcstackBANK0 0020                 ?___fladd 0044                 ?___flmul 002A  
               ?___fltol 0058               ?__Umul8_16 0073        interrupt_function 0004  
               _PIE1bits 008C                 _PIR1bits 000C               _ADCON0bits 001F  
             _ADCON1bits 009F             ??_conversion 0079              ??__Umul8_16 0075  
     __end_of_conversion 07D3                 ___xxtofl 05BC                 __ptext10 0FD2  
               _contador 006C                 _setupADC 0FA8                 _setupPWM 0F5A  
             _INTCONbits 000B                 intlevel1 0000               _OSCCONbits 008F  
 __Umul8_16@multiplicand 0073            ___fladd@signs 0054             ___fladd@aexp 0055  
           ___fladd@bexp 0056     __Umul8_16@multiplier 0024        __Umul8_16@product 0020  
